 EndoScopeMFC

 Timestamp is 5f9a809b (Thu Oct 29 16:43:07 2020)

 Preferred load address is 00400000

 Start         Length     Name                   Class
 0001:00000000 00017e90H .text                   CODE
 0001:00017e90 00001245H .text$x                 CODE
 0001:000190e0 000004d0H .text$yc                CODE
 0001:000195b0 00000169H .text$yd                CODE
 0002:00000000 000007a4H .idata$5                DATA
 0002:000007a4 00000004H .CRT$XCA                DATA
 0002:000007a8 00000004H .CRT$XCAA               DATA
 0002:000007ac 00000008H .CRT$XCL                DATA
 0002:000007b4 0000006cH .CRT$XCU                DATA
 0002:00000820 00000004H .CRT$XCZ                DATA
 0002:00000824 00000004H .CRT$XIA                DATA
 0002:00000828 00000004H .CRT$XIAA               DATA
 0002:0000082c 00000004H .CRT$XIC                DATA
 0002:00000830 00000004H .CRT$XIY                DATA
 0002:00000834 00000004H .CRT$XIZ                DATA
 0002:00000840 00002358H .rdata                  DATA
 0002:00002b98 00000094H .rdata$debug            DATA
 0002:00002c2c 00000bccH .rdata$r                DATA
 0002:00003800 00000114H .rdata$sxdata           DATA
 0002:00003914 00000004H .rtc$IAA                DATA
 0002:00003918 00000004H .rtc$IZZ                DATA
 0002:0000391c 00000004H .rtc$TAA                DATA
 0002:00003920 00000004H .rtc$TZZ                DATA
 0002:00003928 000012b0H .xdata$x                DATA
 0002:00004bd8 00000000H ATL$__a                 DATA
 0002:00004bd8 00000000H ATL$__z                 DATA
 0002:00004bd8 00000154H .idata$2                DATA
 0002:00004d2c 00000014H .idata$3                DATA
 0002:00004d40 000007a4H .idata$4                DATA
 0002:000054e4 00001cfcH .idata$6                DATA
 0002:000071e0 00000000H .edata                  DATA
 0003:00000000 00000620H .data                   DATA
 0003:00000620 024ea674H .bss                    DATA
 0004:00000000 000004fcH .rsrc$01                DATA
 0004:00000500 00011868H .rsrc$02                DATA

  Address         Publics by Value              Rva+Base       Lib:Object

 0000:00000000       __except_list              00000000     <absolute>
 0000:00000045       ___safe_se_handler_count   00000045     <absolute>
 0000:00009876       __ldused                   00009876     <absolute>
 0000:00009876       __fltused                  00009876     <absolute>
 0000:00000000       ___ImageBase               00400000     <linker-defined>
 0001:00000000       ??0CEDSGrabberCB@@QAE@XZ   00401000 f   CEDSGrabberCB.obj
 0001:00000050       ??0?$_Wrap_alloc@V?$allocator@V?$basic_string@DU?$char_traits@D@std@@V?$allocator@D@2@@std@@@std@@@std@@QAE@XZ 00401050 f i DataType.obj
 0001:00000050       ??0?$_Wrap_alloc@V?$allocator@D@std@@@std@@QAE@XZ 00401050 f i CEDSGrabberCB.obj
 0001:00000050       ??0?$_Wrap_alloc@V?$allocator@H@std@@@std@@QAE@XZ 00401050 f i EndoScopeMFCDlg.obj
 0001:00000050       ??0?$_Wrap_alloc@V?$allocator@PAUIBaseFilter@@@std@@@std@@QAE@XZ 00401050 f i EDSCapture.obj
 0001:00000050       ??0?$_Wrap_alloc@V?$allocator@PAE@std@@@std@@QAE@XZ 00401050 f i DataType.obj
 0001:00000050       ??0?$_Wrap_alloc@V?$allocator@U?$_List_node@PAEPAX@std@@@std@@@std@@QAE@XZ 00401050 f i EndoScopeMFCDlg.obj
 0001:00000050       ??0ISampleGrabberCB@@QAE@XZ 00401050 f i CEDSGrabberCB.obj
 0001:00000050       ??0?$_Wrap_alloc@V?$allocator@U_Container_proxy@std@@@std@@@std@@QAE@XZ 00401050 f i DataType.obj
 0001:00000050       ??0?$_Wrap_alloc@V?$allocator@U?$_Tree_node@U?$pair@$$CBIN@std@@PAX@std@@@std@@@std@@QAE@XZ 00401050 f i DataType.obj
 0001:00000070       ??1CEDSGrabberCB@@QAE@XZ   00401070 f   CEDSGrabberCB.obj
 0001:000000b0       ?QueryInterface@CEDSGrabberCB@@UAGJABU_GUID@@PAPAX@Z 004010b0 f   CEDSGrabberCB.obj
 0001:00000100       ?SampleCB@CEDSGrabberCB@@UAGJNPAUIMediaSample@@@Z 00401100 f   CEDSGrabberCB.obj
 0001:00000110       ?CropImage@CEDSGrabberCB@@QAEXPAEPAPAE@Z 00401110 f   CEDSGrabberCB.obj
 0001:00000150       ?BufferCB@CEDSGrabberCB@@UAGJNPAEJ@Z 00401150 f   CEDSGrabberCB.obj
 0001:000001b0       ?AddRef@CEDSGrabberCB@@UAGKXZ 004011b0 f   CEDSGrabberCB.obj
 0001:000001c0       ?Release@CEDSGrabberCB@@UAGKXZ 004011c0 f   CEDSGrabberCB.obj
 0001:000001d0       ??1_System_error_category@std@@UAE@XZ 004011d0 f i pch.obj
 0001:000001d0       ??1_Iostream_error_category@std@@UAE@XZ 004011d0 f i CEDSGrabberCB.obj
 0001:000001f0       ??0error_category@std@@QAE@XZ 004011f0 f i CEDSGrabberCB.obj
 0001:00000210       ??_E_Generic_error_category@std@@UAEPAXI@Z 00401210 f i * CIL library *:* CIL module *
 0001:00000210       ??_G_Generic_error_category@std@@UAEPAXI@Z 00401210 f i CEDSGrabberCB.obj
 0001:00000240       ?name@_Generic_error_category@std@@UBEPBDXZ 00401240 f i CEDSGrabberCB.obj
 0001:00000250       ??0_Generic_error_category@std@@QAE@XZ 00401250 f i CEDSGrabberCB.obj
 0001:00000270       ??_Eerror_category@std@@UAEPAXI@Z 00401270 f i * CIL library *:* CIL module *
 0001:00000270       ??_Gerror_category@std@@UAEPAXI@Z 00401270 f i CEDSGrabberCB.obj
 0001:000002a0       ??1error_category@std@@UAE@XZ 004012a0 f i CEDSGrabberCB.obj
 0001:000002c0       ??1_Generic_error_category@std@@UAE@XZ 004012c0 f i CEDSGrabberCB.obj
 0001:000002e0       ??_G_System_error_category@std@@UAEPAXI@Z 004012e0 f i pch.obj
 0001:000002e0       ??_G_Iostream_error_category@std@@UAEPAXI@Z 004012e0 f i CEDSGrabberCB.obj
 0001:000002e0       ??_E_Iostream_error_category@std@@UAEPAXI@Z 004012e0 f i * CIL library *:* CIL module *
 0001:000002e0       ??_E_System_error_category@std@@UAEPAXI@Z 004012e0 f i * CIL library *:* CIL module *
 0001:00000310       ?name@_Iostream_error_category@std@@UBEPBDXZ 00401310 f i CEDSGrabberCB.obj
 0001:00000320       ?length@?$char_traits@D@std@@SAIPBD@Z 00401320 f i CEDSGrabberCB.obj
 0001:00000370       ?assign@?$basic_string@DU?$char_traits@D@std@@V?$allocator@D@2@@std@@QAEAAV12@PBD@Z 00401370 f i CEDSGrabberCB.obj
 0001:000003a0       ??0?$basic_string@DU?$char_traits@D@std@@V?$allocator@D@2@@std@@QAE@PBD@Z 004013a0 f i CEDSGrabberCB.obj
 0001:000003e0       ?message@_Generic_error_category@std@@UBE?AV?$basic_string@DU?$char_traits@D@std@@V?$allocator@D@2@@2@H@Z 004013e0 f i CEDSGrabberCB.obj
 0001:00000440       ?message@_Iostream_error_category@std@@UBE?AV?$basic_string@DU?$char_traits@D@std@@V?$allocator@D@2@@2@H@Z 00401440 f i CEDSGrabberCB.obj
 0001:000004a0       ?category@error_condition@std@@QBEABVerror_category@2@XZ 004014a0 f i CEDSGrabberCB.obj
 0001:000004a0       ?size@?$list@PAEV?$allocator@PAE@std@@@std@@QBEIXZ 004014a0 f i EndoScopeMFCDlg.obj
 0001:000004a0       ??BCSyncObject@@QBEPAXXZ   004014a0 f i EndoScopeMFCDlg.obj
 0001:000004a0       ?category@error_code@std@@QBEABVerror_category@2@XZ 004014a0 f i CEDSGrabberCB.obj
 0001:000004c0       ??C?$CComPtrBase@UIMoniker@@@ATL@@QBEPAV?$_NoAddRefReleaseOnCComPtr@UIMoniker@@@1@XZ 004014c0 f i EDSCapture.obj
 0001:000004c0       ??D?$_String_const_iterator@V?$_String_val@U?$_Simple_types@D@std@@@std@@@std@@QBEABDXZ 004014c0 f i EndoScopeMFCDlg.obj
 0001:000004c0       ??B?$CComPtrBase@UIBaseFilter@@@ATL@@QBEPAUIBaseFilter@@XZ 004014c0 f i EDSCapture.obj
 0001:000004c0       ??C?$CComPtrBase@UIEnumMoniker@@@ATL@@QBEPAV?$_NoAddRefReleaseOnCComPtr@UIEnumMoniker@@@1@XZ 004014c0 f i EDSCapture.obj
 0001:000004c0       ??B?$CA2AEX@$0IA@@ATL@@QBEPADXZ 004014c0 f i DataType.obj
 0001:000004c0       ??B?$CComPtrBase@UISampleGrabber@@@ATL@@QBEPAUISampleGrabber@@XZ 004014c0 f i EDSCapture.obj
 0001:000004c0       ?value@error_condition@std@@QBEHXZ 004014c0 f i CEDSGrabberCB.obj
 0001:000004c0       ?value@error_code@std@@QBEHXZ 004014c0 f i CEDSGrabberCB.obj
 0001:000004c0       ??C?$CComPtrBase@UISampleGrabber@@@ATL@@QBEPAV?$_NoAddRefReleaseOnCComPtr@UISampleGrabber@@@1@XZ 004014c0 f i EDSCapture.obj
 0001:000004c0       ?_Mynode@?$_Tree_unchecked_const_iterator@V?$_Tree_val@U?$_Tree_simple_types@U?$pair@$$CBIN@std@@@std@@@std@@U_Iterator_base0@2@@std@@QBEPAU?$_Tree_node@U?$pair@$$CBIN@std@@PAX@2@XZ 004014c0 f i DataType.obj
 0001:000004c0       ?_Mynode@?$_List_unchecked_const_iterator@V?$_List_val@U?$_List_simple_types@PAE@std@@@std@@U_Iterator_base0@2@@std@@QBEPAU?$_List_node@PAEPAX@2@XZ 004014c0 f i EndoScopeMFCDlg.obj
 0001:000004c0       ??C?$CComPtrBase@UICreateDevEnum@@@ATL@@QBEPAV?$_NoAddRefReleaseOnCComPtr@UICreateDevEnum@@@1@XZ 004014c0 f i EDSCapture.obj
 0001:000004d0       ?equivalent@error_category@std@@UBE_NABVerror_code@2@H@Z 004014d0 f i CEDSGrabberCB.obj
 0001:00000520       ??8error_category@std@@QBE_NABV01@@Z 00401520 f i CEDSGrabberCB.obj
 0001:00000550       ??8error_condition@std@@QBE_NABV01@@Z 00401550 f i CEDSGrabberCB.obj
 0001:000005b0       ??0CvSize@@QAE@HH@Z        004015b0 f i EndoScopeMFCDlg.obj
 0001:000005b0       ??0error_condition@std@@QAE@HABVerror_category@1@@Z 004015b0 f i CEDSGrabberCB.obj
 0001:000005b0       ??0?$Point_@H@cv@@QAE@HH@Z 004015b0 f i EndoScopeMFCDlg.obj
 0001:000005b0       ??0?$Size_@H@cv@@QAE@HH@Z  004015b0 f i EndoScopeMFCDlg.obj
 0001:000005e0       ?default_error_condition@error_category@std@@UBE?AVerror_condition@2@H@Z 004015e0 f i CEDSGrabberCB.obj
 0001:00000600       ?equivalent@error_category@std@@UBE_NHABVerror_condition@2@@Z 00401600 f i CEDSGrabberCB.obj
 0001:00000630       ??0_Iostream_error_category@std@@QAE@XZ 00401630 f i CEDSGrabberCB.obj
 0001:00000650       ?_Inside@?$basic_string@DU?$char_traits@D@std@@V?$allocator@D@2@@std@@QAE_NPBD@Z 00401650 f i CEDSGrabberCB.obj
 0001:00000690       ?erase@?$basic_string@DU?$char_traits@D@std@@V?$allocator@D@2@@std@@QAEAAV12@I@Z 00401690 f i CEDSGrabberCB.obj
 0001:000006c0       ?_Xran@?$basic_string@DU?$char_traits@D@std@@V?$allocator@D@2@@std@@QBEXXZ 004016c0 f i CEDSGrabberCB.obj
 0001:000006e0       ?erase@?$basic_string@DU?$char_traits@D@std@@V?$allocator@D@2@@std@@QAEAAV12@II@Z 004016e0 f i CEDSGrabberCB.obj
 0001:00000770       ?assign@?$basic_string@DU?$char_traits@D@std@@V?$allocator@D@2@@std@@QAEAAV12@ABV12@II@Z 00401770 f i CEDSGrabberCB.obj
 0001:00000820       ?_Xlen@?$basic_string@DU?$char_traits@D@std@@V?$allocator@D@2@@std@@QBEXXZ 00401820 f i CEDSGrabberCB.obj
 0001:00000840       ?max_size@?$allocator@D@std@@QBEIXZ 00401840 f i CEDSGrabberCB.obj
 0001:00000850       ?max_size@?$allocator_traits@V?$allocator@D@std@@@std@@SAIABV?$allocator@D@2@@Z 00401850 f i CEDSGrabberCB.obj
 0001:00000860       ?max_size@?$_Wrap_alloc@V?$allocator@D@std@@@std@@QBEIXZ 00401860 f i CEDSGrabberCB.obj
 0001:00000880       ?max_size@?$basic_string@DU?$char_traits@D@std@@V?$allocator@D@2@@std@@QBEIXZ 00401880 f i CEDSGrabberCB.obj
 0001:000008c0       ??$_Allocate@D@std@@YAPADIPAD@Z 004018c0 f i CEDSGrabberCB.obj
 0001:00000900       ?allocate@?$allocator@D@std@@QAEPADI@Z 00401900 f i CEDSGrabberCB.obj
 0001:00000920       ?allocate@?$_Wrap_alloc@V?$allocator@D@std@@@std@@QAEPADI@Z 00401920 f i CEDSGrabberCB.obj
 0001:00000940       ?_Copy@?$basic_string@DU?$char_traits@D@std@@V?$allocator@D@2@@std@@QAEXII@Z 00401940 f i CEDSGrabberCB.obj
 0001:00000b10       ?_Grow@?$basic_string@DU?$char_traits@D@std@@V?$allocator@D@2@@std@@QAE_NI_N@Z 00401b10 f i CEDSGrabberCB.obj
 0001:00000bc0       ?assign@?$basic_string@DU?$char_traits@D@std@@V?$allocator@D@2@@std@@QAEAAV12@PBDI@Z 00401bc0 f i CEDSGrabberCB.obj
 0001:00000c40       _==                        00401c40 f i CEDSGrabberCB.obj
 0001:00000c70       ??0?$_String_val@U?$_Simple_types@D@std@@@std@@QAE@XZ 00401c70 f i CEDSGrabberCB.obj
 0001:00000ca0       ??0?$_String_alloc@$0A@U?$_String_base_types@DV?$allocator@D@std@@@std@@@std@@QAE@ABV?$allocator@D@1@@Z 00401ca0 f i CEDSGrabberCB.obj
 0001:00000cc0       ?move@?$char_traits@D@std@@SAPADPADPBDI@Z 00401cc0 f i CEDSGrabberCB.obj
 0001:00000d00       ??2@YAPAXIPAX@Z            00401d00 f i CEDSGrabberCB.obj
 0001:00000d10       ??3@YAXPAX0@Z              00401d10 f i CEDSGrabberCB.obj
 0001:00000d10       ??$_Destroy_range@U?$_Wrap_alloc@V?$allocator@H@std@@@std@@@std@@YAXPAH0AAU?$_Wrap_alloc@V?$allocator@H@std@@@0@U_Scalar_ptr_iterator_tag@0@@Z 00401d10 f i EndoScopeMFCDlg.obj
 0001:00000d10       ??$_Destroy_range@U?$_Wrap_alloc@V?$allocator@PAV?$basic_string@DU?$char_traits@D@std@@V?$allocator@D@2@@std@@@std@@@std@@@std@@YAXPAPAV?$basic_string@DU?$char_traits@D@std@@V?$allocator@D@2@@0@0AAU?$_Wrap_alloc@V?$allocator@PAV?$basic_string@DU?$char_traits@D@std@@V?$allocator@D@2@@std@@@std@@@0@U_Scalar_ptr_iterator_tag@0@@Z 00401d10 f i DataType.obj
 0001:00000d10       ??$_Destroy_range@U?$_Wrap_alloc@V?$allocator@PAUIBaseFilter@@@std@@@std@@@std@@YAXPAPAUIBaseFilter@@0AAU?$_Wrap_alloc@V?$allocator@PAUIBaseFilter@@@std@@@0@U_Scalar_ptr_iterator_tag@0@@Z 00401d10 f i EDSCapture.obj
 0001:00000d20       ??$construct@PAEABQAE@?$allocator@U?$_List_node@PAEPAX@std@@@std@@QAEXPAPAEABQAE@Z 00401d20 f i EndoScopeMFCDlg.obj
 0001:00000d20       ??$construct@PAU?$_Tree_node@U?$pair@$$CBIN@std@@PAX@std@@AAPAU12@@?$allocator@U?$_Tree_node@U?$pair@$$CBIN@std@@PAX@std@@@std@@QAEXPAPAU?$_Tree_node@U?$pair@$$CBIN@std@@PAX@1@AAPAU21@@Z 00401d20 f i DataType.obj
 0001:00000d20       ??$construct@PAU?$_List_node@PAEPAX@std@@AAPAU12@@?$allocator@U?$_List_node@PAEPAX@std@@@std@@QAEXPAPAU?$_List_node@PAEPAX@1@AAPAU21@@Z 00401d20 f i EndoScopeMFCDlg.obj
 0001:00000d20       ??$construct@PADAAPAD@?$allocator@D@std@@QAEXPAPADAAPAD@Z 00401d20 f i CEDSGrabberCB.obj
 0001:00000db0       ??$construct@PAEABQAE@?$allocator_traits@V?$allocator@U?$_List_node@PAEPAX@std@@@std@@@std@@SAXAAV?$allocator@U?$_List_node@PAEPAX@std@@@1@PAPAEABQAE@Z 00401db0 f i EndoScopeMFCDlg.obj
 0001:00000db0       ??$construct@PADAAPAD@?$allocator_traits@V?$allocator@D@std@@@std@@SAXAAV?$allocator@D@1@PAPADAAPAD@Z 00401db0 f i CEDSGrabberCB.obj
 0001:00000db0       ??$construct@PAU?$_Tree_node@U?$pair@$$CBIN@std@@PAX@std@@AAPAU12@@?$allocator_traits@V?$allocator@U?$_Tree_node@U?$pair@$$CBIN@std@@PAX@std@@@std@@@std@@SAXAAV?$allocator@U?$_Tree_node@U?$pair@$$CBIN@std@@PAX@std@@@1@PAPAU?$_Tree_node@U?$pair@$$CBIN@std@@PAX@1@AAPAU31@@Z 00401db0 f i DataType.obj
 0001:00000db0       ??$construct@PAU?$_List_node@PAEPAX@std@@AAPAU12@@?$allocator_traits@V?$allocator@U?$_List_node@PAEPAX@std@@@std@@@std@@SAXAAV?$allocator@U?$_List_node@PAEPAX@std@@@1@PAPAU?$_List_node@PAEPAX@1@AAPAU31@@Z 00401db0 f i EndoScopeMFCDlg.obj
 0001:00000dd0       ??$forward@U_Container_proxy@std@@@std@@YA$$QAU_Container_proxy@0@AAU10@@Z 00401dd0 f i DataType.obj
 0001:00000dd0       ??$addressof@U?$pair@$$CBIN@std@@@std@@YAPAU?$pair@$$CBIN@0@AAU10@@Z 00401dd0 f i DataType.obj
 0001:00000dd0       ??$forward@AAPAD@std@@YAAAPADAAPAD@Z 00401dd0 f i CEDSGrabberCB.obj
 0001:00000dd0       ?_Nextnode@?$_List_val@U?$_List_simple_types@PAE@std@@@std@@SAAAPAU?$_List_node@PAEPAX@2@PAU32@@Z 00401dd0 f i EndoScopeMFCDlg.obj
 0001:00000dd0       ??$addressof@PAU?$_List_node@PAEPAX@std@@@std@@YAPAPAU?$_List_node@PAEPAX@0@AAPAU10@@Z 00401dd0 f i EndoScopeMFCDlg.obj
 0001:00000dd0       ??$forward@ABQAE@std@@YAABQAEABQAE@Z 00401dd0 f i EndoScopeMFCDlg.obj
 0001:00000dd0       ??$_Move@AAD@std@@YA$$QADAAD@Z 00401dd0 f i DataType.obj
 0001:00000dd0       ??$forward@AAPAU?$_List_node@PAEPAX@std@@@std@@YAAAPAU?$_List_node@PAEPAX@0@AAPAU10@@Z 00401dd0 f i EndoScopeMFCDlg.obj
 0001:00000dd0       ??$forward@AAPAU?$_Tree_node@U?$pair@$$CBIN@std@@PAX@std@@@std@@YAAAPAU?$_Tree_node@U?$pair@$$CBIN@std@@PAX@0@AAPAU10@@Z 00401dd0 f i DataType.obj
 0001:00000dd0       ?_Left@?$_Tree_val@U?$_Tree_simple_types@U?$pair@$$CBIN@std@@@std@@@std@@SAAAPAU?$_Tree_node@U?$pair@$$CBIN@std@@PAX@2@PAU32@@Z 00401dd0 f i DataType.obj
 0001:00000dd0       ??$addressof@PAE@std@@YAPAPAEAAPAE@Z 00401dd0 f i EndoScopeMFCDlg.obj
 0001:00000dd0       ??$addressof@PAU?$_Tree_node@U?$pair@$$CBIN@std@@PAX@std@@@std@@YAPAPAU?$_Tree_node@U?$pair@$$CBIN@std@@PAX@0@AAPAU10@@Z 00401dd0 f i DataType.obj
 0001:00000dd0       ??$_Unchecked@PAN@std@@YAPANPAN@Z 00401dd0 f i EndoScopeMFCDlg.obj
 0001:00000dd0       ??$forward@ABV?$basic_string@DU?$char_traits@D@std@@V?$allocator@D@2@@std@@@std@@YAABV?$basic_string@DU?$char_traits@D@std@@V?$allocator@D@2@@0@ABV10@@Z 00401dd0 f i DataType.obj
 0001:00000dd0       ??$addressof@D@std@@YAPADAAD@Z 00401dd0 f i CEDSGrabberCB.obj
 0001:00000dd0       ??$move@AAV?$basic_istream@DU?$char_traits@D@std@@@std@@@std@@YA$$QAV?$basic_istream@DU?$char_traits@D@std@@@0@AAV10@@Z 00401dd0 f i EndoScopeMFCDlg.obj
 0001:00000de0       ??$construct@PAU?$_Tree_node@U?$pair@$$CBIN@std@@PAX@std@@AAPAU12@@?$_Wrap_alloc@V?$allocator@U?$_Tree_node@U?$pair@$$CBIN@std@@PAX@std@@@std@@@std@@QAEXPAPAU?$_Tree_node@U?$pair@$$CBIN@std@@PAX@1@AAPAU21@@Z 00401de0 f i DataType.obj
 0001:00000de0       ??$construct@PAEABQAE@?$_Wrap_alloc@V?$allocator@U?$_List_node@PAEPAX@std@@@std@@@std@@QAEXPAPAEABQAE@Z 00401de0 f i EndoScopeMFCDlg.obj
 0001:00000de0       ??$construct@PADAAPAD@?$_Wrap_alloc@V?$allocator@D@std@@@std@@QAEXPAPADAAPAD@Z 00401de0 f i CEDSGrabberCB.obj
 0001:00000de0       ??$construct@PAU?$_List_node@PAEPAX@std@@AAPAU12@@?$_Wrap_alloc@V?$allocator@U?$_List_node@PAEPAX@std@@@std@@@std@@QAEXPAPAU?$_List_node@PAEPAX@1@AAPAU21@@Z 00401de0 f i EndoScopeMFCDlg.obj
 0001:00000e10       ??$destroy@U_Container_proxy@std@@@?$allocator@U_Container_proxy@std@@@std@@QAEXPAU_Container_proxy@1@@Z 00401e10 f i DataType.obj
 0001:00000e10       ?DoDataExchange@CWnd@@MAEXPAVCDataExchange@@@Z 00401e10 f i CSetPSW.obj
 0001:00000e10       ??$destroy@PAV?$basic_string@DU?$char_traits@D@std@@V?$allocator@D@2@@std@@@?$allocator@V?$basic_string@DU?$char_traits@D@std@@V?$allocator@D@2@@std@@@std@@QAEXPAPAV?$basic_string@DU?$char_traits@D@std@@V?$allocator@D@2@@1@@Z 00401e10 f i DataType.obj
 0001:00000e10       ??$destroy@PAD@?$allocator@D@std@@QAEXPAPAD@Z 00401e10 f i CEDSGrabberCB.obj
 0001:00000e10       ??$destroy@PAE@?$allocator@PAE@std@@QAEXPAPAE@Z 00401e10 f i DataType.obj
 0001:00000e10       ??$destroy@PAU?$_Tree_node@U?$pair@$$CBIN@std@@PAX@std@@@?$allocator@U?$_Tree_node@U?$pair@$$CBIN@std@@PAX@std@@@std@@QAEXPAPAU?$_Tree_node@U?$pair@$$CBIN@std@@PAX@1@@Z 00401e10 f i DataType.obj
 0001:00000e10       ?_Adopt@_Iterator_base0@std@@QAEXPBX@Z 00401e10 f i DataType.obj
 0001:00000e10       ??$destroy@PAE@?$allocator@U?$_List_node@PAEPAX@std@@@std@@QAEXPAPAE@Z 00401e10 f i EndoScopeMFCDlg.obj
 0001:00000e10       ?Serialize@CObject@@UAEXAAVCArchive@@@Z 00401e10 f i CSetPSW.obj
 0001:00000e10       ??$destroy@PAPAE@?$allocator@PAE@std@@QAEXPAPAPAE@Z 00401e10 f i DataType.obj
 0001:00000e10       ?Dump@CObject@@UBEXAAVCDumpContext@@@Z 00401e10 f i CSetPSW.obj
 0001:00000e10       ??$destroy@U?$pair@$$CBIN@std@@@?$allocator@U?$_Tree_node@U?$pair@$$CBIN@std@@PAX@std@@@std@@QAEXPAU?$pair@$$CBIN@1@@Z 00401e10 f i DataType.obj
 0001:00000e10       ??$destroy@PAU?$_List_node@PAEPAX@std@@@?$allocator@U?$_List_node@PAEPAX@std@@@std@@QAEXPAPAU?$_List_node@PAEPAX@1@@Z 00401e10 f i EndoScopeMFCDlg.obj
 0001:00000e20       ??$destroy@U_Container_proxy@std@@@?$allocator_traits@V?$allocator@U_Container_proxy@std@@@std@@@std@@SAXAAV?$allocator@U_Container_proxy@std@@@1@PAU_Container_proxy@1@@Z 00401e20 f i DataType.obj
 0001:00000e20       ??$destroy@U?$pair@$$CBIN@std@@@?$allocator_traits@V?$allocator@U?$_Tree_node@U?$pair@$$CBIN@std@@PAX@std@@@std@@@std@@SAXAAV?$allocator@U?$_Tree_node@U?$pair@$$CBIN@std@@PAX@std@@@1@PAU?$pair@$$CBIN@1@@Z 00401e20 f i DataType.obj
 0001:00000e20       ??$destroy@PAU?$_Tree_node@U?$pair@$$CBIN@std@@PAX@std@@@?$allocator_traits@V?$allocator@U?$_Tree_node@U?$pair@$$CBIN@std@@PAX@std@@@std@@@std@@SAXAAV?$allocator@U?$_Tree_node@U?$pair@$$CBIN@std@@PAX@std@@@1@PAPAU?$_Tree_node@U?$pair@$$CBIN@std@@PAX@1@@Z 00401e20 f i DataType.obj
 0001:00000e20       ??$destroy@PAD@?$allocator_traits@V?$allocator@D@std@@@std@@SAXAAV?$allocator@D@1@PAPAD@Z 00401e20 f i CEDSGrabberCB.obj
 0001:00000e20       ??$destroy@PAV?$basic_string@DU?$char_traits@D@std@@V?$allocator@D@2@@std@@@?$allocator_traits@V?$allocator@V?$basic_string@DU?$char_traits@D@std@@V?$allocator@D@2@@std@@@std@@@std@@SAXAAV?$allocator@V?$basic_string@DU?$char_traits@D@std@@V?$allocator@D@2@@std@@@1@PAPAV?$basic_string@DU?$char_traits@D@std@@V?$allocator@D@2@@1@@Z 00401e20 f i DataType.obj
 0001:00000e20       ??$destroy@PAE@?$allocator_traits@V?$allocator@PAE@std@@@std@@SAXAAV?$allocator@PAE@1@PAPAE@Z 00401e20 f i DataType.obj
 0001:00000e20       ??$destroy@PAE@?$allocator_traits@V?$allocator@U?$_List_node@PAEPAX@std@@@std@@@std@@SAXAAV?$allocator@U?$_List_node@PAEPAX@std@@@1@PAPAE@Z 00401e20 f i EndoScopeMFCDlg.obj
 0001:00000e20       ??$destroy@PAPAE@?$allocator_traits@V?$allocator@PAE@std@@@std@@SAXAAV?$allocator@PAE@1@PAPAPAE@Z 00401e20 f i DataType.obj
 0001:00000e20       ??$destroy@PAU?$_List_node@PAEPAX@std@@@?$allocator_traits@V?$allocator@U?$_List_node@PAEPAX@std@@@std@@@std@@SAXAAV?$allocator@U?$_List_node@PAEPAX@std@@@1@PAPAU?$_List_node@PAEPAX@1@@Z 00401e20 f i EndoScopeMFCDlg.obj
 0001:00000e40       ??$destroy@PAU?$_Tree_node@U?$pair@$$CBIN@std@@PAX@std@@@?$_Wrap_alloc@V?$allocator@U?$_Tree_node@U?$pair@$$CBIN@std@@PAX@std@@@std@@@std@@QAEXPAPAU?$_Tree_node@U?$pair@$$CBIN@std@@PAX@1@@Z 00401e40 f i DataType.obj
 0001:00000e40       ??$destroy@PAE@?$_Wrap_alloc@V?$allocator@U?$_List_node@PAEPAX@std@@@std@@@std@@QAEXPAPAE@Z 00401e40 f i EndoScopeMFCDlg.obj
 0001:00000e40       ??$destroy@PAPAE@?$_Wrap_alloc@V?$allocator@PAE@std@@@std@@QAEXPAPAPAE@Z 00401e40 f i DataType.obj
 0001:00000e40       ??$destroy@PAV?$basic_string@DU?$char_traits@D@std@@V?$allocator@D@2@@std@@@?$_Wrap_alloc@V?$allocator@V?$basic_string@DU?$char_traits@D@std@@V?$allocator@D@2@@std@@@std@@@std@@QAEXPAPAV?$basic_string@DU?$char_traits@D@std@@V?$allocator@D@2@@1@@Z 00401e40 f i DataType.obj
 0001:00000e40       ??$destroy@PAD@?$_Wrap_alloc@V?$allocator@D@std@@@std@@QAEXPAPAD@Z 00401e40 f i CEDSGrabberCB.obj
 0001:00000e40       ??$destroy@U?$pair@$$CBIN@std@@@?$_Wrap_alloc@V?$allocator@U?$_Tree_node@U?$pair@$$CBIN@std@@PAX@std@@@std@@@std@@QAEXPAU?$pair@$$CBIN@1@@Z 00401e40 f i DataType.obj
 0001:00000e40       ??$destroy@PAE@?$_Wrap_alloc@V?$allocator@PAE@std@@@std@@QAEXPAPAE@Z 00401e40 f i DataType.obj
 0001:00000e40       ??$destroy@PAU?$_List_node@PAEPAX@std@@@?$_Wrap_alloc@V?$allocator@U?$_List_node@PAEPAX@std@@@std@@@std@@QAEXPAPAU?$_List_node@PAEPAX@1@@Z 00401e40 f i EndoScopeMFCDlg.obj
 0001:00000e40       ??$destroy@U_Container_proxy@std@@@?$_Wrap_alloc@V?$allocator@U_Container_proxy@std@@@std@@@std@@QAEXPAU_Container_proxy@1@@Z 00401e40 f i DataType.obj
 0001:00000e60       ?copy@?$char_traits@D@std@@SAPADPADPBDI@Z 00401e60 f i CEDSGrabberCB.obj
 0001:00000e90       ?deallocate@?$allocator@U?$_Tree_node@U?$pair@$$CBIN@std@@PAX@std@@@std@@QAEXPAU?$_Tree_node@U?$pair@$$CBIN@std@@PAX@2@I@Z 00401e90 f i DataType.obj
 0001:00000e90       ?deallocate@?$allocator@PAE@std@@QAEXPAPAEI@Z 00401e90 f i DataType.obj
 0001:00000e90       ?deallocate@?$allocator@U?$_List_node@PAEPAX@std@@@std@@QAEXPAU?$_List_node@PAEPAX@2@I@Z 00401e90 f i EndoScopeMFCDlg.obj
 0001:00000e90       ?deallocate@?$allocator@PAUIBaseFilter@@@std@@QAEXPAPAUIBaseFilter@@I@Z 00401e90 f i EDSCapture.obj
 0001:00000e90       ?deallocate@?$allocator@U_Container_proxy@std@@@std@@QAEXPAU_Container_proxy@2@I@Z 00401e90 f i DataType.obj
 0001:00000e90       ?deallocate@?$allocator@D@std@@QAEXPADI@Z 00401e90 f i CEDSGrabberCB.obj
 0001:00000e90       ?deallocate@?$allocator@V?$basic_string@DU?$char_traits@D@std@@V?$allocator@D@2@@std@@@std@@QAEXPAV?$basic_string@DU?$char_traits@D@std@@V?$allocator@D@2@@2@I@Z 00401e90 f i DataType.obj
 0001:00000e90       ?deallocate@?$allocator@PAPAE@std@@QAEXPAPAPAEI@Z 00401e90 f i DataType.obj
 0001:00000e90       ?deallocate@?$allocator@H@std@@QAEXPAHI@Z 00401e90 f i EndoScopeMFCDlg.obj
 0001:00000e90       ?deallocate@?$allocator@PAV?$basic_string@DU?$char_traits@D@std@@V?$allocator@D@2@@std@@@std@@QAEXPAPAV?$basic_string@DU?$char_traits@D@std@@V?$allocator@D@2@@2@I@Z 00401e90 f i DataType.obj
 0001:00000eb0       ?deallocate@?$_Wrap_alloc@V?$allocator@U?$_List_node@PAEPAX@std@@@std@@@std@@QAEXPAU?$_List_node@PAEPAX@2@I@Z 00401eb0 f i EndoScopeMFCDlg.obj
 0001:00000eb0       ?deallocate@?$_Wrap_alloc@V?$allocator@V?$basic_string@DU?$char_traits@D@std@@V?$allocator@D@2@@std@@@std@@@std@@QAEXPAV?$basic_string@DU?$char_traits@D@std@@V?$allocator@D@2@@2@I@Z 00401eb0 f i DataType.obj
 0001:00000eb0       ?deallocate@?$_Wrap_alloc@V?$allocator@PAPAE@std@@@std@@QAEXPAPAPAEI@Z 00401eb0 f i DataType.obj
 0001:00000eb0       ?deallocate@?$_Wrap_alloc@V?$allocator@U_Container_proxy@std@@@std@@@std@@QAEXPAU_Container_proxy@2@I@Z 00401eb0 f i DataType.obj
 0001:00000eb0       ?deallocate@?$_Wrap_alloc@V?$allocator@PAUIBaseFilter@@@std@@@std@@QAEXPAPAUIBaseFilter@@I@Z 00401eb0 f i EDSCapture.obj
 0001:00000eb0       ?deallocate@?$_Wrap_alloc@V?$allocator@D@std@@@std@@QAEXPADI@Z 00401eb0 f i CEDSGrabberCB.obj
 0001:00000eb0       ?deallocate@?$_Wrap_alloc@V?$allocator@H@std@@@std@@QAEXPAHI@Z 00401eb0 f i EndoScopeMFCDlg.obj
 0001:00000eb0       ?deallocate@?$_Wrap_alloc@V?$allocator@PAE@std@@@std@@QAEXPAPAEI@Z 00401eb0 f i DataType.obj
 0001:00000eb0       ?deallocate@?$_Wrap_alloc@V?$allocator@U?$_Tree_node@U?$pair@$$CBIN@std@@PAX@std@@@std@@@std@@QAEXPAU?$_Tree_node@U?$pair@$$CBIN@std@@PAX@2@I@Z 00401eb0 f i DataType.obj
 0001:00000eb0       ?deallocate@?$_Wrap_alloc@V?$allocator@PAV?$basic_string@DU?$char_traits@D@std@@V?$allocator@D@2@@std@@@std@@@std@@QAEXPAPAV?$basic_string@DU?$char_traits@D@std@@V?$allocator@D@2@@2@I@Z 00401eb0 f i DataType.obj
 0001:00000ed0       ??0?$allocator@PAE@std@@QAE@XZ 00401ed0 f i DataType.obj
 0001:00000ed0       ??0?$allocator@U?$pair@$$CBIN@std@@@std@@QAE@XZ 00401ed0 f i DataType.obj
 0001:00000ed0       ??0?$allocator@D@std@@QAE@XZ 00401ed0 f i CEDSGrabberCB.obj
 0001:00000ed0       ??BCRect@@QAEPAUtagRECT@@XZ 00401ed0 f i EndoScopeMFCDlg.obj
 0001:00000ed0       ??0?$allocator@V?$basic_string@DU?$char_traits@D@std@@V?$allocator@D@2@@std@@@std@@QAE@XZ 00401ed0 f i DataType.obj
 0001:00000ed0       ??0CObject@@IAE@XZ         00401ed0 f i EndoScopeMFCDlg.obj
 0001:00000ed0       ??I?$CComPtrBase@UIMoniker@@@ATL@@QAEPAPAUIMoniker@@XZ 00401ed0 f i EDSCapture.obj
 0001:00000ed0       ??0?$allocator@U_Container_proxy@std@@@std@@QAE@XZ 00401ed0 f i DataType.obj
 0001:00000ed0       ??0?$allocator@U?$_Tree_node@U?$pair@$$CBIN@std@@PAX@std@@@std@@QAE@XZ 00401ed0 f i DataType.obj
 0001:00000ed0       ??0?$allocator@U?$_List_node@PAEPAX@std@@@std@@QAE@XZ 00401ed0 f i EndoScopeMFCDlg.obj
 0001:00000ed0       ??0?$allocator@PAUIBaseFilter@@@std@@QAE@XZ 00401ed0 f i EDSCapture.obj
 0001:00000ed0       ??I?$CComPtrBase@UICreateDevEnum@@@ATL@@QAEPAPAUICreateDevEnum@@XZ 00401ed0 f i EDSCapture.obj
 0001:00000ed0       ??I?$CComPtrBase@UIEnumMoniker@@@ATL@@QAEPAPAUIEnumMoniker@@XZ 00401ed0 f i EDSCapture.obj
 0001:00000ed0       ??0IUnknown@@QAE@XZ        00401ed0 f i CEDSGrabberCB.obj
 0001:00000ed0       ??0?$allocator@H@std@@QAE@XZ 00401ed0 f i EndoScopeMFCDlg.obj
 0001:00000ee0       ?_Getal@?$_Deque_alloc@$0A@U?$_Deque_base_types@PAEV?$allocator@PAE@std@@@std@@@std@@QBE?AU?$_Wrap_alloc@V?$allocator@PAE@std@@@2@XZ 00401ee0 f i DataType.obj
 0001:00000ee0       ?_Getal@?$_String_alloc@$0A@U?$_String_base_types@DV?$allocator@D@std@@@std@@@std@@QBE?AU?$_Wrap_alloc@V?$allocator@D@std@@@2@XZ 00401ee0 f i CEDSGrabberCB.obj
 0001:00000ee0       ?_Getal@?$_Deque_alloc@$0A@U?$_Deque_base_types@V?$basic_string@DU?$char_traits@D@std@@V?$allocator@D@2@@std@@V?$allocator@V?$basic_string@DU?$char_traits@D@std@@V?$allocator@D@2@@std@@@2@@std@@@std@@QBE?AU?$_Wrap_alloc@V?$allocator@V?$basic_string@DU?$char_traits@D@std@@V?$allocator@D@2@@std@@@std@@@2@XZ 00401ee0 f i DataType.obj
 0001:00000ee0       ?_Getal@?$_Vector_alloc@$0A@U?$_Vec_base_types@HV?$allocator@H@std@@@std@@@std@@QBE?AU?$_Wrap_alloc@V?$allocator@H@std@@@2@XZ 00401ee0 f i EndoScopeMFCDlg.obj
 0001:00000ee0       ?_Getal@?$_Tree_alloc@$0A@U?$_Tree_base_types@U?$pair@$$CBIN@std@@V?$allocator@U?$pair@$$CBIN@std@@@2@@std@@@std@@QBE?AU?$_Wrap_alloc@V?$allocator@U?$_Tree_node@U?$pair@$$CBIN@std@@PAX@std@@@std@@@2@XZ 00401ee0 f i DataType.obj
 0001:00000ee0       ?_Getal@?$_Vector_alloc@$0A@U?$_Vec_base_types@PAUIBaseFilter@@V?$allocator@PAUIBaseFilter@@@std@@@std@@@std@@QBE?AU?$_Wrap_alloc@V?$allocator@PAUIBaseFilter@@@std@@@2@XZ 00401ee0 f i EDSCapture.obj
 0001:00000ee0       ?_Getal@?$_List_alloc@$0A@U?$_List_base_types@PAEV?$allocator@PAE@std@@@std@@@std@@QBE?AU?$_Wrap_alloc@V?$allocator@U?$_List_node@PAEPAX@std@@@std@@@2@XZ 00401ee0 f i EndoScopeMFCDlg.obj
 0001:00000f00       ?assign@?$char_traits@D@std@@SAXAADABD@Z 00401f00 f i CEDSGrabberCB.obj
 0001:00000f10       ?_Myptr@?$_String_val@U?$_Simple_types@D@std@@@std@@QAEPADXZ 00401f10 f i CEDSGrabberCB.obj
 0001:00000f10       ?_Myptr@?$_String_val@U?$_Simple_types@D@std@@@std@@QBEPBDXZ 00401f10 f i CEDSGrabberCB.obj
 0001:00000f50       ?_Eos@?$basic_string@DU?$char_traits@D@std@@V?$allocator@D@2@@std@@QAEXI@Z 00401f50 f i CEDSGrabberCB.obj
 0001:00000f90       ?_Tidy@?$basic_string@DU?$char_traits@D@std@@V?$allocator@D@2@@std@@QAEX_NI@Z 00401f90 f i CEDSGrabberCB.obj
 0001:00001030       ??1?$basic_string@DU?$char_traits@D@std@@V?$allocator@D@2@@std@@QAE@XZ 00402030 f i CEDSGrabberCB.obj
 0001:00001050       ?state@?$fpos@H@std@@QBEHXZ 00402050 f i EndoScopeMFCDlg.obj
 0001:00001050       ?size@?$basic_string@DU?$char_traits@D@std@@V?$allocator@D@2@@std@@QBEIXZ 00402050 f i CEDSGrabberCB.obj
 0001:00001070       _IsEqualGUID               00402070 f i CEDSGrabberCB.obj
 0001:000010b0       ?_GetBaseClass@Login@@KGPAUCRuntimeClass@@XZ 004020b0 f   Login.obj
 0001:000010b0       ?_GetBaseClass@CSetPSW@@KGPAUCRuntimeClass@@XZ 004020b0 f   CSetPSW.obj
 0001:000010c0       ?GetRuntimeClass@CSetPSW@@UBEPAUCRuntimeClass@@XZ 004020c0 f   CSetPSW.obj
 0001:000010d0       ??0CSetPSW@@QAE@PAVCWnd@@@Z 004020d0 f   CSetPSW.obj
 0001:00001100       ??_GCSetPSW@@UAEPAXI@Z     00402100 f i CSetPSW.obj
 0001:00001100       ??_ECSetPSW@@UAEPAXI@Z     00402100 f i * CIL library *:* CIL module *
 0001:00001130       ??1CDialogEx@@UAE@XZ       00402130 f i CSetPSW.obj
 0001:000011a0       ??1CSetPSW@@UAE@XZ         004021a0 f   CSetPSW.obj
 0001:000011c0       ?DoDataExchange@CSetPSW@@MAEXPAVCDataExchange@@@Z 004021c0 f   CSetPSW.obj
 0001:000011c0       ?DoDataExchange@CEndoScopeMFCDlg@@MAEXPAVCDataExchange@@@Z 004021c0 f   EndoScopeMFCDlg.obj
 0001:000011c0       ?DoDataExchange@CAboutDlg@@MAEXPAVCDataExchange@@@Z 004021c0 f   EndoScopeMFCDlg.obj
 0001:000011e0       ?GetMessageMap@CSetPSW@@MBEPBUAFX_MSGMAP@@XZ 004021e0 f   CSetPSW.obj
 0001:000011f0       ?GetThisMessageMap@CSetPSW@@KGPBUAFX_MSGMAP@@XZ 004021f0 f   CSetPSW.obj
 0001:00001200       ?OnBnClickedOk@CSetPSW@@QAEXXZ 00402200 f   CSetPSW.obj
 0001:00001720       ?noAnorD@CSetPSW@@QAE_NPBD@Z 00402720 f   CSetPSW.obj
 0001:00001790       ??8ATL@@YA_NPBDABV?$CStringT@DV?$StrTraitMFC_DLL@DV?$ChTraitsCRT@D@ATL@@@@@0@@Z 00402790 f i CSetPSW.obj
 0001:000017c0       ??9ATL@@YA_NABV?$CStringT@DV?$StrTraitMFC_DLL@DV?$ChTraitsCRT@D@ATL@@@@@0@0@Z 004027c0 f i CSetPSW.obj
 0001:00001800       ?Create@CDialog@@UAEHIPAVCWnd@@@Z 00402800 f i CSetPSW.obj
 0001:00001820       ?EndModalState@CWnd@@UAEXXZ 00402820 f i CSetPSW.obj
 0001:00001840       ?BeginModalState@CWnd@@UAEXXZ 00402840 f i CSetPSW.obj
 0001:00001860       ??8ATL@@YA_NABV?$CStringT@DV?$StrTraitMFC_DLL@DV?$ChTraitsCRT@D@ATL@@@@@0@0@Z 00402860 f i CSetPSW.obj
 0001:000018a0       ??HATL@@YA?AV?$CStringT@DV?$StrTraitMFC_DLL@DV?$ChTraitsCRT@D@ATL@@@@@0@ABV10@PBD@Z 004028a0 f i CSetPSW.obj
 0001:00001960       ??_GCBrush@@UAEPAXI@Z      00402960 f i CSetPSW.obj
 0001:00001960       ??_ECBrush@@UAEPAXI@Z      00402960 f i * CIL library *:* CIL module *
 0001:00001990       ??_ECGdiObject@@UAEPAXI@Z  00402990 f i * CIL library *:* CIL module *
 0001:00001990       ??_GCGdiObject@@UAEPAXI@Z  00402990 f i CSetPSW.obj
 0001:000019c0       ?AssertValid@CObject@@UBEXXZ 004029c0 f i CSetPSW.obj
 0001:000019c0       ?OnBnClickedButOk@CEndoScopeMFCDlg@@QAEXXZ 004029c0 f i EndoScopeMFCDlg.obj
 0001:000019c0       ??1CObject@@UAE@XZ         004029c0 f i CSetPSW.obj
 0001:000019c0       ??1_InputArray@cv@@QAE@XZ  004029c0 f i EndoScopeMFCDlg.obj
 0001:000019d0       ??1CGdiObject@@UAE@XZ      004029d0 f i CSetPSW.obj
 0001:00001b80       ??1CBrush@@UAE@XZ          00402b80 f i CSetPSW.obj
 0001:00001ba0       ??3CObject@@SGXPAX@Z       00402ba0 f i CSetPSW.obj
 0001:00001bc0       ?__autoclassinit@?$queue@V?$basic_string@DU?$char_traits@D@std@@V?$allocator@D@2@@std@@V?$deque@V?$basic_string@DU?$char_traits@D@std@@V?$allocator@D@2@@std@@V?$allocator@V?$basic_string@DU?$char_traits@D@std@@V?$allocator@D@2@@std@@@2@@2@@std@@QAEXI@Z 00402bc0 f i DataType.obj
 0001:00001bc0       ?__autoclassinit@?$queue@PAEV?$deque@PAEV?$allocator@PAE@std@@@std@@@std@@QAEXI@Z 00402bc0 f i DataType.obj
 0001:00001be0       ??1?$queue@PAEV?$deque@PAEV?$allocator@PAE@std@@@std@@@std@@QAE@XZ 00402be0 f i DataType.obj
 0001:00001c00       ?__autoclassinit@?$deque@V?$basic_string@DU?$char_traits@D@std@@V?$allocator@D@2@@std@@V?$allocator@V?$basic_string@DU?$char_traits@D@std@@V?$allocator@D@2@@std@@@2@@std@@QAEXI@Z 00402c00 f i DataType.obj
 0001:00001c00       ?__autoclassinit@?$deque@PAEV?$allocator@PAE@std@@@std@@QAEXI@Z 00402c00 f i DataType.obj
 0001:00001c20       ?__autoclassinit@CEvent@@QAEXI@Z 00402c20 f i EndoScopeMFCDlg.obj
 0001:00001c20       ?__autoclassinit@CFont@@QAEXI@Z 00402c20 f i EndoScopeMFCDlg.obj
 0001:00001c20       ?__autoclassinit@CRgn@@QAEXI@Z 00402c20 f i EndoScopeMFCDlg.obj
 0001:00001c20       ?__autoclassinit@CBrush@@QAEXI@Z 00402c20 f i EndoScopeMFC.obj
 0001:00001c20       ?__autoclassinit@?$_Deque_alloc@$0A@U?$_Deque_base_types@PAEV?$allocator@PAE@std@@@std@@@std@@QAEXI@Z 00402c20 f i DataType.obj
 0001:00001c20       ?__autoclassinit@?$_Deque_alloc@$0A@U?$_Deque_base_types@V?$basic_string@DU?$char_traits@D@std@@V?$allocator@D@2@@std@@V?$allocator@V?$basic_string@DU?$char_traits@D@std@@V?$allocator@D@2@@std@@@2@@std@@@std@@QAEXI@Z 00402c20 f i DataType.obj
 0001:00001c40       ?__autoclassinit@CGdiObject@@QAEXI@Z 00402c40 f i EndoScopeMFC.obj
 0001:00001c40       ?__autoclassinit@CSyncObject@@QAEXI@Z 00402c40 f i EndoScopeMFCDlg.obj
 0001:00001c40       ?__autoclassinit@?$_Deque_val@U?$_Deque_simple_types@PAE@std@@@std@@QAEXI@Z 00402c40 f i DataType.obj
 0001:00001c40       ?__autoclassinit@?$_Deque_val@U?$_Deque_simple_types@V?$basic_string@DU?$char_traits@D@std@@V?$allocator@D@2@@std@@@std@@@std@@QAEXI@Z 00402c40 f i DataType.obj
 0001:00001c60       ?__autoclassinit@?$map@INU?$less@I@std@@V?$allocator@U?$pair@$$CBIN@std@@@2@@std@@QAEXI@Z 00402c60 f i DataType.obj
 0001:00001c80       ??1?$map@INU?$less@I@std@@V?$allocator@U?$pair@$$CBIN@std@@@2@@std@@QAE@XZ 00402c80 f i DataType.obj
 0001:00001ca0       ?__autoclassinit@?$_Tree@V?$_Tmap_traits@INU?$less@I@std@@V?$allocator@U?$pair@$$CBIN@std@@@2@$0A@@std@@@std@@QAEXI@Z 00402ca0 f i DataType.obj
 0001:00001cc0       ?__autoclassinit@?$_Tree_comp@$0A@V?$_Tmap_traits@INU?$less@I@std@@V?$allocator@U?$pair@$$CBIN@std@@@2@$0A@@std@@@std@@QAEXI@Z 00402cc0 f i DataType.obj
 0001:00001cc0       ?__autoclassinit@?$list@PAEV?$allocator@PAE@std@@@std@@QAEXI@Z 00402cc0 f i EndoScopeMFC.obj
 0001:00001ce0       ?__autoclassinit@?$_List_buy@PAEV?$allocator@PAE@std@@@std@@QAEXI@Z 00402ce0 f i EndoScopeMFC.obj
 0001:00001ce0       ?__autoclassinit@?$_Tree_buy@U?$pair@$$CBIN@std@@V?$allocator@U?$pair@$$CBIN@std@@@2@@std@@QAEXI@Z 00402ce0 f i DataType.obj
 0001:00001ce0       ?__autoclassinit@?$CComQIPtr@UIBaseFilter@@$1?IID_IBaseFilter@@3U_GUID@@B@ATL@@QAEXI@Z 00402ce0 f i EDSCapture.obj
 0001:00001d00       ?__autoclassinit@?$CComPtr@UIMoniker@@@ATL@@QAEXI@Z 00402d00 f i EDSCapture.obj
 0001:00001d00       ?__autoclassinit@?$_List_alloc@$0A@U?$_List_base_types@PAEV?$allocator@PAE@std@@@std@@@std@@QAEXI@Z 00402d00 f i EndoScopeMFC.obj
 0001:00001d00       ?__autoclassinit@?$_List_const_iterator@V?$_List_val@U?$_List_simple_types@PAE@std@@@std@@@std@@QAEXI@Z 00402d00 f i EndoScopeMFCDlg.obj
 0001:00001d00       ?__autoclassinit@?$CComPtr@UISampleGrabber@@@ATL@@QAEXI@Z 00402d00 f i EndoScopeMFC.obj
 0001:00001d00       ?__autoclassinit@?$CComPtr@UIBaseFilter@@@ATL@@QAEXI@Z 00402d00 f i EDSCapture.obj
 0001:00001d00       ?__autoclassinit@?$_Tree_const_iterator@V?$_Tree_val@U?$_Tree_simple_types@U?$pair@$$CBIN@std@@@std@@@std@@@std@@QAEXI@Z 00402d00 f i DataType.obj
 0001:00001d00       ?__autoclassinit@?$CComPtr@UICreateDevEnum@@@ATL@@QAEXI@Z 00402d00 f i EDSCapture.obj
 0001:00001d00       ?__autoclassinit@?$CComPtr@UIEnumMoniker@@@ATL@@QAEXI@Z 00402d00 f i EDSCapture.obj
 0001:00001d00       ?__autoclassinit@?$_Tree_alloc@$0A@U?$_Tree_base_types@U?$pair@$$CBIN@std@@V?$allocator@U?$pair@$$CBIN@std@@@2@@std@@@std@@QAEXI@Z 00402d00 f i DataType.obj
 0001:00001d20       ?__autoclassinit@?$CComPtrBase@UIEnumMoniker@@@ATL@@QAEXI@Z 00402d20 f i EDSCapture.obj
 0001:00001d20       ?__autoclassinit@?$CComPtrBase@UIMoniker@@@ATL@@QAEXI@Z 00402d20 f i EDSCapture.obj
 0001:00001d20       ?__autoclassinit@?$CComPtrBase@UICreateDevEnum@@@ATL@@QAEXI@Z 00402d20 f i EDSCapture.obj
 0001:00001d20       ?__autoclassinit@?$_List_unchecked_const_iterator@V?$_List_val@U?$_List_simple_types@PAE@std@@@std@@U_Iterator_base0@2@@std@@QAEXI@Z 00402d20 f i EndoScopeMFCDlg.obj
 0001:00001d20       ?__autoclassinit@?$_List_val@U?$_List_simple_types@PAE@std@@@std@@QAEXI@Z 00402d20 f i EndoScopeMFC.obj
 0001:00001d20       ?__autoclassinit@?$CComPtrBase@UIBaseFilter@@@ATL@@QAEXI@Z 00402d20 f i EDSCapture.obj
 0001:00001d20       ?__autoclassinit@?$CComPtrBase@UISampleGrabber@@@ATL@@QAEXI@Z 00402d20 f i EndoScopeMFC.obj
 0001:00001d20       ?__autoclassinit@?$_Tree_unchecked_const_iterator@V?$_Tree_val@U?$_Tree_simple_types@U?$pair@$$CBIN@std@@@std@@@std@@U_Iterator_base0@2@@std@@QAEXI@Z 00402d20 f i DataType.obj
 0001:00001d20       ?__autoclassinit@?$_Tree_val@U?$_Tree_simple_types@U?$pair@$$CBIN@std@@@std@@@std@@QAEXI@Z 00402d20 f i DataType.obj
 0001:00001d40       ??1?$queue@V?$basic_string@DU?$char_traits@D@std@@V?$allocator@D@2@@std@@V?$deque@V?$basic_string@DU?$char_traits@D@std@@V?$allocator@D@2@@std@@V?$allocator@V?$basic_string@DU?$char_traits@D@std@@V?$allocator@D@2@@std@@@2@@2@@std@@QAE@XZ 00402d40 f i DataType.obj
 0001:00001d80       ?ReadConfig@@YA_NXZ        00402d80 f   DataType.obj
 0001:000023b0       ?SetConfig@@YAXV?$CStringT@DV?$StrTraitMFC_DLL@DV?$ChTraitsCRT@D@ATL@@@@@ATL@@N@Z 004033b0 f   DataType.obj
 0001:00002510       ?ReturnPath@@YA?AV?$CStringT@DV?$StrTraitMFC_DLL@DV?$ChTraitsCRT@D@ATL@@@@@ATL@@XZ 00403510 f   DataType.obj
 0001:00002600       ??9ATL@@YA_NABV?$CStringT@DV?$StrTraitMFC_DLL@DV?$ChTraitsCRT@D@ATL@@@@@0@PBD@Z 00403600 f i DataType.obj
 0001:00002630       ??0?$queue@V?$basic_string@DU?$char_traits@D@std@@V?$allocator@D@2@@std@@V?$deque@V?$basic_string@DU?$char_traits@D@std@@V?$allocator@D@2@@std@@V?$allocator@V?$basic_string@DU?$char_traits@D@std@@V?$allocator@D@2@@std@@@2@@2@@std@@QAE@XZ 00403630 f i DataType.obj
 0001:00002630       ??0?$queue@PAEV?$deque@PAEV?$allocator@PAE@std@@@std@@@std@@QAE@XZ 00403630 f i DataType.obj
 0001:00002650       ??1?$deque@PAEV?$allocator@PAE@std@@@std@@QAE@XZ 00403650 f i DataType.obj
 0001:00002670       ??0?$map@INU?$less@I@std@@V?$allocator@U?$pair@$$CBIN@std@@@2@@std@@QAE@XZ 00403670 f i DataType.obj
 0001:000026a0       ??1?$_Tree@V?$_Tmap_traits@INU?$less@I@std@@V?$allocator@U?$pair@$$CBIN@std@@@2@$0A@@std@@@std@@QAE@XZ 004036a0 f i DataType.obj
 0001:000026c0       ?push@?$queue@V?$basic_string@DU?$char_traits@D@std@@V?$allocator@D@2@@std@@V?$deque@V?$basic_string@DU?$char_traits@D@std@@V?$allocator@D@2@@std@@V?$allocator@V?$basic_string@DU?$char_traits@D@std@@V?$allocator@D@2@@std@@@2@@2@@std@@QAEXABV?$basic_string@DU?$char_traits@D@std@@V?$allocator@D@2@@2@@Z 004036c0 f i DataType.obj
 0001:000026e0       ??1?$deque@V?$basic_string@DU?$char_traits@D@std@@V?$allocator@D@2@@std@@V?$allocator@V?$basic_string@DU?$char_traits@D@std@@V?$allocator@D@2@@std@@@2@@std@@QAE@XZ 004036e0 f i DataType.obj
 0001:00002700       ??0?$CA2AEX@$0IA@@ATL@@QAE@PBD@Z 00403700 f i DataType.obj
 0001:00002730       ??1?$CA2AEX@$0IA@@ATL@@QAE@XZ 00403730 f i DataType.obj
 0001:00002760       ??1?$_Tree_comp@$0A@V?$_Tmap_traits@INU?$less@I@std@@V?$allocator@U?$pair@$$CBIN@std@@@2@$0A@@std@@@std@@QAE@XZ 00403760 f i DataType.obj
 0001:00002780       ??1?$_Tree_buy@U?$pair@$$CBIN@std@@V?$allocator@U?$pair@$$CBIN@std@@@2@@std@@QAE@XZ 00403780 f i DataType.obj
 0001:000027a0       ??0?$deque@V?$basic_string@DU?$char_traits@D@std@@V?$allocator@D@2@@std@@V?$allocator@V?$basic_string@DU?$char_traits@D@std@@V?$allocator@D@2@@std@@@2@@std@@QAE@XZ 004037a0 f i DataType.obj
 0001:000027a0       ??0?$deque@PAEV?$allocator@PAE@std@@@std@@QAE@XZ 004037a0 f i DataType.obj
 0001:000027d0       ?_Tidy@?$deque@PAEV?$allocator@PAE@std@@@std@@IAEXXZ 004037d0 f i DataType.obj
 0001:000028c0       ??1?$_Deque_alloc@$0A@U?$_Deque_base_types@V?$basic_string@DU?$char_traits@D@std@@V?$allocator@D@2@@std@@V?$allocator@V?$basic_string@DU?$char_traits@D@std@@V?$allocator@D@2@@std@@@2@@std@@@std@@QAE@XZ 004038c0 f i DataType.obj
 0001:000028c0       ??1?$_Deque_alloc@$0A@U?$_Deque_base_types@PAEV?$allocator@PAE@std@@@std@@@std@@QAE@XZ 004038c0 f i DataType.obj
 0001:000028e0       ??0?$_Tree@V?$_Tmap_traits@INU?$less@I@std@@V?$allocator@U?$pair@$$CBIN@std@@@2@$0A@@std@@@std@@QAE@ABU?$less@I@1@ABV?$allocator@U?$pair@$$CBIN@std@@@1@@Z 004038e0 f i DataType.obj
 0001:00002900       ?_Tidy@?$_Tree@V?$_Tmap_traits@INU?$less@I@std@@V?$allocator@U?$pair@$$CBIN@std@@@2@$0A@@std@@@std@@IAEXXZ 00403900 f i DataType.obj
 0001:00002950       ??1?$_Tree_alloc@$0A@U?$_Tree_base_types@U?$pair@$$CBIN@std@@V?$allocator@U?$pair@$$CBIN@std@@@2@@std@@@std@@QAE@XZ 00403950 f i DataType.obj
 0001:00002970       ?push_back@?$deque@V?$basic_string@DU?$char_traits@D@std@@V?$allocator@D@2@@std@@V?$allocator@V?$basic_string@DU?$char_traits@D@std@@V?$allocator@D@2@@std@@@2@@std@@QAEXABV?$basic_string@DU?$char_traits@D@std@@V?$allocator@D@2@@2@@Z 00403970 f i DataType.obj
 0001:00002a70       ?_Tidy@?$deque@V?$basic_string@DU?$char_traits@D@std@@V?$allocator@D@2@@std@@V?$allocator@V?$basic_string@DU?$char_traits@D@std@@V?$allocator@D@2@@std@@@2@@std@@IAEXXZ 00403a70 f i DataType.obj
 0001:00002b60       ?Init@?$CA2AEX@$0IA@@ATL@@AAEXPBD@Z 00403b60 f i DataType.obj
 0001:00002bf0       ??1?$_Deque_val@U?$_Deque_simple_types@V?$basic_string@DU?$char_traits@D@std@@V?$allocator@D@2@@std@@@std@@@std@@QAE@XZ 00403bf0 f i DataType.obj
 0001:00002bf0       ??1?$_Deque_val@U?$_Deque_simple_types@PAE@std@@@std@@QAE@XZ 00403bf0 f i DataType.obj
 0001:00002c10       ?empty@?$deque@V?$basic_string@DU?$char_traits@D@std@@V?$allocator@D@2@@std@@V?$allocator@V?$basic_string@DU?$char_traits@D@std@@V?$allocator@D@2@@std@@@2@@std@@QBE_NXZ 00403c10 f i DataType.obj
 0001:00002c10       ?empty@?$basic_string@DU?$char_traits@D@std@@V?$allocator@D@2@@std@@QBE_NXZ 00403c10 f i EndoScopeMFCDlg.obj
 0001:00002c10       ?empty@?$deque@PAEV?$allocator@PAE@std@@@std@@QBE_NXZ 00403c10 f i DataType.obj
 0001:00002c40       ?pop_back@?$deque@PAEV?$allocator@PAE@std@@@std@@QAEXXZ 00403c40 f i DataType.obj
 0001:00002ce0       ??0?$_Deque_alloc@$0A@U?$_Deque_base_types@PAEV?$allocator@PAE@std@@@std@@@std@@QAE@ABV?$allocator@PAE@1@@Z 00403ce0 f i DataType.obj
 0001:00002ce0       ??0?$_Deque_alloc@$0A@U?$_Deque_base_types@V?$basic_string@DU?$char_traits@D@std@@V?$allocator@D@2@@std@@V?$allocator@V?$basic_string@DU?$char_traits@D@std@@V?$allocator@D@2@@std@@@2@@std@@@std@@QAE@ABV?$allocator@V?$basic_string@DU?$char_traits@D@std@@V?$allocator@D@2@@std@@@1@@Z 00403ce0 f i DataType.obj
 0001:00002d40       ?_Free_proxy@?$_Deque_alloc@$0A@U?$_Deque_base_types@PAEV?$allocator@PAE@std@@@std@@@std@@QAEXXZ 00403d40 f i DataType.obj
 0001:00002d40       ?_Free_proxy@?$_Deque_alloc@$0A@U?$_Deque_base_types@V?$basic_string@DU?$char_traits@D@std@@V?$allocator@D@2@@std@@V?$allocator@V?$basic_string@DU?$char_traits@D@std@@V?$allocator@D@2@@std@@@2@@std@@@std@@QAEXXZ 00403d40 f i DataType.obj
 0001:00002da0       ?begin@?$_Tree@V?$_Tmap_traits@INU?$less@I@std@@V?$allocator@U?$pair@$$CBIN@std@@@2@$0A@@std@@@std@@QAE?AV?$_Tree_iterator@V?$_Tree_val@U?$_Tree_simple_types@U?$pair@$$CBIN@std@@@std@@@std@@@2@XZ 00403da0 f i DataType.obj
 0001:00002dd0       ?end@?$_Tree@V?$_Tmap_traits@INU?$less@I@std@@V?$allocator@U?$pair@$$CBIN@std@@@2@$0A@@std@@@std@@QAE?AV?$_Tree_iterator@V?$_Tree_val@U?$_Tree_simple_types@U?$pair@$$CBIN@std@@@std@@@std@@@2@XZ 00403dd0 f i DataType.obj
 0001:00002e00       ?erase@?$_Tree@V?$_Tmap_traits@INU?$less@I@std@@V?$allocator@U?$pair@$$CBIN@std@@@2@$0A@@std@@@std@@QAE?AV?$_Tree_iterator@V?$_Tree_val@U?$_Tree_simple_types@U?$pair@$$CBIN@std@@@std@@@std@@@2@V?$_Tree_const_iterator@V?$_Tree_val@U?$_Tree_simple_types@U?$pair@$$CBIN@std@@@std@@@std@@@2@0@Z 00403e00 f i DataType.obj
 0001:00002eb0       ??0?$_Tree_comp@$0A@V?$_Tmap_traits@INU?$less@I@std@@V?$allocator@U?$pair@$$CBIN@std@@@2@$0A@@std@@@std@@QAE@ABU?$less@I@1@ABV?$allocator@U?$pair@$$CBIN@std@@@1@@Z 00403eb0 f i DataType.obj
 0001:00002ed0       ?_Freenode@?$_List_buy@PAEV?$allocator@PAE@std@@@std@@QAEXPAU?$_List_node@PAEPAX@2@@Z 00403ed0 f i EndoScopeMFCDlg.obj
 0001:00002ed0       ?_Freeheadnode@?$_Tree_alloc@$0A@U?$_Tree_base_types@U?$pair@$$CBIN@std@@V?$allocator@U?$pair@$$CBIN@std@@@2@@std@@@std@@QAEXPAU?$_Tree_node@U?$pair@$$CBIN@std@@PAX@2@@Z 00403ed0 f i DataType.obj
 0001:00002f80       ?pop_back@?$deque@V?$basic_string@DU?$char_traits@D@std@@V?$allocator@D@2@@std@@V?$allocator@V?$basic_string@DU?$char_traits@D@std@@V?$allocator@D@2@@std@@@2@@std@@QAEXXZ 00403f80 f i DataType.obj
 0001:00003020       ?_Growmap@?$deque@V?$basic_string@DU?$char_traits@D@std@@V?$allocator@D@2@@std@@V?$allocator@V?$basic_string@DU?$char_traits@D@std@@V?$allocator@D@2@@std@@@2@@std@@IAEXI@Z 00404020 f i DataType.obj
 0001:00003240       ?allocate@?$_Wrap_alloc@V?$allocator@V?$basic_string@DU?$char_traits@D@std@@V?$allocator@D@2@@std@@@std@@@std@@QAEPAV?$basic_string@DU?$char_traits@D@std@@V?$allocator@D@2@@2@I@Z 00404240 f i DataType.obj
 0001:00003260       ?_Getblock@?$_Deque_val@U?$_Deque_simple_types@V?$basic_string@DU?$char_traits@D@std@@V?$allocator@D@2@@std@@@std@@@std@@QBEII@Z 00404260 f i DataType.obj
 0001:00003280       ?_Alloc_proxy@?$_Deque_alloc@$0A@U?$_Deque_base_types@PAEV?$allocator@PAE@std@@@std@@@std@@QAEXXZ 00404280 f i DataType.obj
 0001:00003280       ?_Alloc_proxy@?$_Deque_alloc@$0A@U?$_Deque_base_types@V?$basic_string@DU?$char_traits@D@std@@V?$allocator@D@2@@std@@V?$allocator@V?$basic_string@DU?$char_traits@D@std@@V?$allocator@D@2@@std@@@2@@std@@@std@@QAEXXZ 00404280 f i DataType.obj
 0001:000032e0       ??0?$_Deque_val@U?$_Deque_simple_types@V?$basic_string@DU?$char_traits@D@std@@V?$allocator@D@2@@std@@@std@@@std@@QAE@XZ 004042e0 f i DataType.obj
 0001:000032e0       ??0?$_Deque_val@U?$_Deque_simple_types@PAE@std@@@std@@QAE@XZ 004042e0 f i DataType.obj
 0001:00003320       ?_Getblock@?$_Deque_val@U?$_Deque_simple_types@PAE@std@@@std@@QBEII@Z 00404320 f i DataType.obj
 0001:00003340       ?erase@?$_Tree@V?$_Tmap_traits@INU?$less@I@std@@V?$allocator@U?$pair@$$CBIN@std@@@2@$0A@@std@@@std@@QAE?AV?$_Tree_iterator@V?$_Tree_val@U?$_Tree_simple_types@U?$pair@$$CBIN@std@@@std@@@std@@@2@V?$_Tree_const_iterator@V?$_Tree_val@U?$_Tree_simple_types@U?$pair@$$CBIN@std@@@std@@@std@@@2@@Z 00404340 f i DataType.obj
 0001:00003ae0       ?clear@?$_Tree@V?$_Tmap_traits@INU?$less@I@std@@V?$allocator@U?$pair@$$CBIN@std@@@2@$0A@@std@@@std@@QAEXXZ 00404ae0 f i DataType.obj
 0001:00003b40       ?_Lmost@?$_Tree@V?$_Tmap_traits@INU?$less@I@std@@V?$allocator@U?$pair@$$CBIN@std@@@2@$0A@@std@@@std@@IBEAAPAU?$_Tree_node@U?$pair@$$CBIN@std@@PAX@2@XZ 00404b40 f i DataType.obj
 0001:00003b60       ??0?$_Tree_buy@U?$pair@$$CBIN@std@@V?$allocator@U?$pair@$$CBIN@std@@@2@@std@@QAE@ABV?$allocator@U?$pair@$$CBIN@std@@@1@@Z 00404b60 f i DataType.obj
 0001:00003b80       ?_Prevnode@?$_List_val@U?$_List_simple_types@PAE@std@@@std@@SAAAPAU?$_List_node@PAEPAX@2@PAU32@@Z 00404b80 f i EndoScopeMFCDlg.obj
 0001:00003b80       ?_Parent@?$_Tree_val@U?$_Tree_simple_types@U?$pair@$$CBIN@std@@@std@@@std@@SAAAPAU?$_Tree_node@U?$pair@$$CBIN@std@@PAX@2@PAU32@@Z 00404b80 f i DataType.obj
 0001:00003b90       ?_Myval@?$_List_val@U?$_List_simple_types@PAE@std@@@std@@SAAAPAEPAU?$_List_node@PAEPAX@2@@Z 00404b90 f i EndoScopeMFCDlg.obj
 0001:00003b90       ?_Right@?$_Tree_val@U?$_Tree_simple_types@U?$pair@$$CBIN@std@@@std@@@std@@SAAAPAU?$_Tree_node@U?$pair@$$CBIN@std@@PAX@2@PAU32@@Z 00404b90 f i DataType.obj
 0001:00003ba0       ?max_size@?$deque@V?$basic_string@DU?$char_traits@D@std@@V?$allocator@D@2@@std@@V?$allocator@V?$basic_string@DU?$char_traits@D@std@@V?$allocator@D@2@@std@@@2@@std@@QBEIXZ 00404ba0 f i DataType.obj
 0001:00003bc0       ?_Xlen@?$deque@V?$basic_string@DU?$char_traits@D@std@@V?$allocator@D@2@@std@@V?$allocator@V?$basic_string@DU?$char_traits@D@std@@V?$allocator@D@2@@std@@@2@@std@@IBEXXZ 00404bc0 f i DataType.obj
 0001:00003be0       ?allocate@?$allocator@V?$basic_string@DU?$char_traits@D@std@@V?$allocator@D@2@@std@@@std@@QAEPAV?$basic_string@DU?$char_traits@D@std@@V?$allocator@D@2@@2@I@Z 00404be0 f i DataType.obj
 0001:00003c00       ?allocate@?$_Wrap_alloc@V?$allocator@PAV?$basic_string@DU?$char_traits@D@std@@V?$allocator@D@2@@std@@@std@@@std@@QAEPAPAV?$basic_string@DU?$char_traits@D@std@@V?$allocator@D@2@@2@I@Z 00404c00 f i DataType.obj
 0001:00003c20       ??0?$_Tree_iterator@V?$_Tree_val@U?$_Tree_simple_types@U?$pair@$$CBIN@std@@@std@@@std@@@std@@QAE@PAU?$_Tree_node@U?$pair@$$CBIN@std@@PAX@1@PBV?$_Tree_val@U?$_Tree_simple_types@U?$pair@$$CBIN@std@@@std@@@1@@Z 00404c20 f i DataType.obj
 0001:00003c20       ??0?$_List_iterator@V?$_List_val@U?$_List_simple_types@PAE@std@@@std@@@std@@QAE@PAU?$_List_node@PAEPAX@1@PBV?$_List_val@U?$_List_simple_types@PAE@std@@@1@@Z 00404c20 f i EndoScopeMFCDlg.obj
 0001:00003c40       ??E?$_Tree_const_iterator@V?$_Tree_val@U?$_Tree_simple_types@U?$pair@$$CBIN@std@@@std@@@std@@@std@@QAE?AV01@H@Z 00404c40 f i DataType.obj
 0001:00003c90       ??8?$_Tree_const_iterator@V?$_Tree_val@U?$_Tree_simple_types@U?$pair@$$CBIN@std@@@std@@@std@@@std@@QBE_NABV01@@Z 00404c90 f i DataType.obj
 0001:00003cc0       ??9?$_Tree_const_iterator@V?$_Tree_val@U?$_Tree_simple_types@U?$pair@$$CBIN@std@@@std@@@std@@@std@@QBE_NABV01@@Z 00404cc0 f i DataType.obj
 0001:00003d00       ?_Erase@?$_Tree@V?$_Tmap_traits@INU?$less@I@std@@V?$allocator@U?$pair@$$CBIN@std@@@2@$0A@@std@@@std@@IAEXPAU?$_Tree_node@U?$pair@$$CBIN@std@@PAX@2@@Z 00404d00 f i DataType.obj
 0001:00003da0       ?_Lrotate@?$_Tree@V?$_Tmap_traits@INU?$less@I@std@@V?$allocator@U?$pair@$$CBIN@std@@@2@$0A@@std@@@std@@IAEXPAU?$_Tree_node@U?$pair@$$CBIN@std@@PAX@2@@Z 00404da0 f i DataType.obj
 0001:00003ed0       ?_Rmost@?$_Tree@V?$_Tmap_traits@INU?$less@I@std@@V?$allocator@U?$pair@$$CBIN@std@@@2@$0A@@std@@@std@@IBEAAPAU?$_Tree_node@U?$pair@$$CBIN@std@@PAX@2@XZ 00404ed0 f i DataType.obj
 0001:00003ed0       ??D?$_List_const_iterator@V?$_List_val@U?$_List_simple_types@PAE@std@@@std@@@std@@QBEABQAEXZ 00404ed0 f i EndoScopeMFCDlg.obj
 0001:00003ef0       ?_Root@?$_Tree@V?$_Tmap_traits@INU?$less@I@std@@V?$allocator@U?$pair@$$CBIN@std@@@2@$0A@@std@@@std@@IBEAAPAU?$_Tree_node@U?$pair@$$CBIN@std@@PAX@2@XZ 00404ef0 f i DataType.obj
 0001:00003f10       ?_Rrotate@?$_Tree@V?$_Tmap_traits@INU?$less@I@std@@V?$allocator@U?$pair@$$CBIN@std@@@2@$0A@@std@@@std@@IAEXPAU?$_Tree_node@U?$pair@$$CBIN@std@@PAX@2@@Z 00404f10 f i DataType.obj
 0001:00004040       ??0?$_Tree_alloc@$0A@U?$_Tree_base_types@U?$pair@$$CBIN@std@@V?$allocator@U?$pair@$$CBIN@std@@@2@@std@@@std@@QAE@ABV?$allocator@U?$pair@$$CBIN@std@@@1@@Z 00405040 f i DataType.obj
 0001:00004070       ?_Color@?$_Tree_val@U?$_Tree_simple_types@U?$pair@$$CBIN@std@@@std@@@std@@SAAADPAU?$_Tree_node@U?$pair@$$CBIN@std@@PAX@2@@Z 00405070 f i DataType.obj
 0001:00004080       ?_Isnil@?$_Tree_val@U?$_Tree_simple_types@U?$pair@$$CBIN@std@@@std@@@std@@SAAADPAU?$_Tree_node@U?$pair@$$CBIN@std@@PAX@2@@Z 00405080 f i DataType.obj
 0001:00004090       ?_Myval@?$_Tree_val@U?$_Tree_simple_types@U?$pair@$$CBIN@std@@@std@@@std@@SAAAU?$pair@$$CBIN@2@PAU?$_Tree_node@U?$pair@$$CBIN@std@@PAX@2@@Z 00405090 f i DataType.obj
 0001:000040a0       ?_Max@?$_Tree_val@U?$_Tree_simple_types@U?$pair@$$CBIN@std@@@std@@@std@@SAPAU?$_Tree_node@U?$pair@$$CBIN@std@@PAX@2@PAU32@@Z 004050a0 f i DataType.obj
 0001:000040e0       ?_Min@?$_Tree_val@U?$_Tree_simple_types@U?$pair@$$CBIN@std@@@std@@@std@@SAPAU?$_Tree_node@U?$pair@$$CBIN@std@@PAX@2@PAU32@@Z 004050e0 f i DataType.obj
 0001:00004120       ?max_size@?$_Wrap_alloc@V?$allocator@V?$basic_string@DU?$char_traits@D@std@@V?$allocator@D@2@@std@@@std@@@std@@QBEIXZ 00405120 f i DataType.obj
 0001:00004140       ?allocate@?$allocator@PAV?$basic_string@DU?$char_traits@D@std@@V?$allocator@D@2@@std@@@std@@QAEPAPAV?$basic_string@DU?$char_traits@D@std@@V?$allocator@D@2@@2@I@Z 00405140 f i DataType.obj
 0001:00004160       ??0?$_List_const_iterator@V?$_List_val@U?$_List_simple_types@PAE@std@@@std@@@std@@QAE@PAU?$_List_node@PAEPAX@1@PBV?$_List_val@U?$_List_simple_types@PAE@std@@@1@@Z 00405160 f i EndoScopeMFCDlg.obj
 0001:00004160       ??0?$_List_unchecked_iterator@V?$_List_val@U?$_List_simple_types@PAE@std@@@std@@@std@@QAE@PAU?$_List_node@PAEPAX@1@PBV?$_List_val@U?$_List_simple_types@PAE@std@@@1@@Z 00405160 f i EndoScopeMFCDlg.obj
 0001:00004160       ??0?$_Tree_const_iterator@V?$_Tree_val@U?$_Tree_simple_types@U?$pair@$$CBIN@std@@@std@@@std@@@std@@QAE@PAU?$_Tree_node@U?$pair@$$CBIN@std@@PAX@1@PBV?$_Tree_val@U?$_Tree_simple_types@U?$pair@$$CBIN@std@@@std@@@1@@Z 00405160 f i DataType.obj
 0001:00004180       ??E?$_Tree_const_iterator@V?$_Tree_val@U?$_Tree_simple_types@U?$pair@$$CBIN@std@@@std@@@std@@@std@@QAEAAV01@XZ 00405180 f i DataType.obj
 0001:000041a0       ?allocate@?$_Wrap_alloc@V?$allocator@U_Container_proxy@std@@@std@@@std@@QAEPAU_Container_proxy@2@I@Z 004051a0 f i DataType.obj
 0001:000041c0       ?_Buyheadnode@?$_Tree_alloc@$0A@U?$_Tree_base_types@U?$pair@$$CBIN@std@@V?$allocator@U?$pair@$$CBIN@std@@@2@@std@@@std@@QAEPAU?$_Tree_node@U?$pair@$$CBIN@std@@PAX@2@XZ 004051c0 f i DataType.obj
 0001:00004330       ??0_Container_proxy@std@@QAE@XZ 00405330 f i DataType.obj
 0001:00004330       ??0?$_List_val@U?$_List_simple_types@PAE@std@@@std@@QAE@XZ 00405330 f i EndoScopeMFCDlg.obj
 0001:00004330       ??0?$_Tree_val@U?$_Tree_simple_types@U?$pair@$$CBIN@std@@@std@@@std@@QAE@XZ 00405330 f i DataType.obj
 0001:00004330       ??0CPoint@@QAE@XZ          00405330 f i EndoScopeMFCDlg.obj
 0001:00004330       ??0?$Size_@H@cv@@QAE@XZ    00405330 f i EndoScopeMFCDlg.obj
 0001:00004360       ?max_size@?$allocator_traits@V?$allocator@V?$basic_string@DU?$char_traits@D@std@@V?$allocator@D@2@@std@@@std@@@std@@SAIABV?$allocator@V?$basic_string@DU?$char_traits@D@std@@V?$allocator@D@2@@std@@@2@@Z 00405360 f i DataType.obj
 0001:00004370       ??0?$_List_unchecked_const_iterator@V?$_List_val@U?$_List_simple_types@PAE@std@@@std@@U_Iterator_base0@2@@std@@QAE@PAU?$_List_node@PAEPAX@1@PBV?$_List_val@U?$_List_simple_types@PAE@std@@@1@@Z 00405370 f i EndoScopeMFCDlg.obj
 0001:00004370       ??0?$_Tree_unchecked_const_iterator@V?$_Tree_val@U?$_Tree_simple_types@U?$pair@$$CBIN@std@@@std@@@std@@U_Iterator_base0@2@@std@@QAE@PAU?$_Tree_node@U?$pair@$$CBIN@std@@PAX@1@PBV?$_Tree_val@U?$_Tree_simple_types@U?$pair@$$CBIN@std@@@std@@@1@@Z 00405370 f i DataType.obj
 0001:000043a0       ??E?$_Tree_unchecked_const_iterator@V?$_Tree_val@U?$_Tree_simple_types@U?$pair@$$CBIN@std@@@std@@@std@@U_Iterator_base0@2@@std@@QAEAAV01@XZ 004053a0 f i DataType.obj
 0001:00004460       ?allocate@?$allocator@U_Container_proxy@std@@@std@@QAEPAU_Container_proxy@2@I@Z 00405460 f i DataType.obj
 0001:00004480       ?allocate@?$_Wrap_alloc@V?$allocator@U?$_Tree_node@U?$pair@$$CBIN@std@@PAX@std@@@std@@@std@@QAEPAU?$_Tree_node@U?$pair@$$CBIN@std@@PAX@2@I@Z 00405480 f i DataType.obj
 0001:000044a0       ?max_size@?$allocator@V?$basic_string@DU?$char_traits@D@std@@V?$allocator@D@2@@std@@@std@@QBEIXZ 004054a0 f i DataType.obj
 0001:000044b0       ?allocate@?$allocator@U?$_Tree_node@U?$pair@$$CBIN@std@@PAX@std@@@std@@QAEPAU?$_Tree_node@U?$pair@$$CBIN@std@@PAX@2@I@Z 004054b0 f i DataType.obj
 0001:000044d0       ??$?0U?$_Wrap_alloc@V?$allocator@V?$basic_string@DU?$char_traits@D@std@@V?$allocator@D@2@@std@@@std@@@std@@@?$_Wrap_alloc@V?$allocator@PAV?$basic_string@DU?$char_traits@D@std@@V?$allocator@D@2@@std@@@std@@@std@@QAE@ABU?$_Wrap_alloc@V?$allocator@V?$basic_string@DU?$char_traits@D@std@@V?$allocator@D@2@@std@@@std@@@1@@Z 004054d0 f i DataType.obj
 0001:000044d0       ??$?0U?$_Wrap_alloc@V?$allocator@PAE@std@@@std@@@?$_Wrap_alloc@V?$allocator@PAPAE@std@@@std@@QAE@ABU?$_Wrap_alloc@V?$allocator@PAE@std@@@1@@Z 004054d0 f i DataType.obj
 0001:000044d0       ??0?$_Wrap_alloc@V?$allocator@D@std@@@std@@QAE@ABV?$allocator@D@1@@Z 004054d0 f i DataType.obj
 0001:000044f0       ??$construct@V?$basic_string@DU?$char_traits@D@std@@V?$allocator@D@2@@std@@ABV12@@?$_Wrap_alloc@V?$allocator@V?$basic_string@DU?$char_traits@D@std@@V?$allocator@D@2@@std@@@std@@@std@@QAEXPAV?$basic_string@DU?$char_traits@D@std@@V?$allocator@D@2@@1@ABV21@@Z 004054f0 f i DataType.obj
 0001:00004520       ??$destroy@V?$basic_string@DU?$char_traits@D@std@@V?$allocator@D@2@@std@@@?$_Wrap_alloc@V?$allocator@V?$basic_string@DU?$char_traits@D@std@@V?$allocator@D@2@@std@@@std@@@std@@QAEXPAV?$basic_string@DU?$char_traits@D@std@@V?$allocator@D@2@@1@@Z 00405520 f i DataType.obj
 0001:00004540       ??$_Uninitialized_copy@PAPAV?$basic_string@DU?$char_traits@D@std@@V?$allocator@D@2@@std@@PAPAV12@U?$_Wrap_alloc@V?$allocator@PAV?$basic_string@DU?$char_traits@D@std@@V?$allocator@D@2@@std@@@std@@@2@@std@@YAPAPAV?$basic_string@DU?$char_traits@D@std@@V?$allocator@D@2@@0@PAPAV10@00AAU?$_Wrap_alloc@V?$allocator@PAV?$basic_string@DU?$char_traits@D@std@@V?$allocator@D@2@@std@@@std@@@0@@Z 00405540 f i DataType.obj
 0001:00004580       ??$_Uninitialized_default_fill_n@PAPAV?$basic_string@DU?$char_traits@D@std@@V?$allocator@D@2@@std@@IU?$_Wrap_alloc@V?$allocator@PAV?$basic_string@DU?$char_traits@D@std@@V?$allocator@D@2@@std@@@std@@@2@@std@@YAXPAPAV?$basic_string@DU?$char_traits@D@std@@V?$allocator@D@2@@0@IAAU?$_Wrap_alloc@V?$allocator@PAV?$basic_string@DU?$char_traits@D@std@@V?$allocator@D@2@@std@@@std@@@0@@Z 00405580 f i DataType.obj
 0001:000045d0       ??$_Destroy_range@U?$_Wrap_alloc@V?$allocator@H@std@@@std@@@std@@YAXPAH0AAU?$_Wrap_alloc@V?$allocator@H@std@@@0@@Z 004055d0 f i EndoScopeMFCDlg.obj
 0001:000045d0       ??$_Destroy_range@U?$_Wrap_alloc@V?$allocator@PAV?$basic_string@DU?$char_traits@D@std@@V?$allocator@D@2@@std@@@std@@@std@@@std@@YAXPAPAV?$basic_string@DU?$char_traits@D@std@@V?$allocator@D@2@@0@0AAU?$_Wrap_alloc@V?$allocator@PAV?$basic_string@DU?$char_traits@D@std@@V?$allocator@D@2@@std@@@std@@@0@@Z 004055d0 f i DataType.obj
 0001:000045d0       ??$_Destroy_range@U?$_Wrap_alloc@V?$allocator@PAUIBaseFilter@@@std@@@std@@@std@@YAXPAPAUIBaseFilter@@0AAU?$_Wrap_alloc@V?$allocator@PAUIBaseFilter@@@std@@@0@@Z 004055d0 f i EDSCapture.obj
 0001:00004610       ??$construct@U_Container_proxy@std@@U12@@?$_Wrap_alloc@V?$allocator@U_Container_proxy@std@@@std@@@std@@QAEXPAU_Container_proxy@1@$$QAU21@@Z 00405610 f i DataType.obj
 0001:00004640       ??$swap@D@std@@YAXAAD0@Z   00405640 f i DataType.obj
 0001:000046a0       ??$_Allocate@V?$basic_string@DU?$char_traits@D@std@@V?$allocator@D@2@@std@@@std@@YAPAV?$basic_string@DU?$char_traits@D@std@@V?$allocator@D@2@@0@IPAV10@@Z 004056a0 f i DataType.obj
 0001:000046f0       ??$_Allocate@PAV?$basic_string@DU?$char_traits@D@std@@V?$allocator@D@2@@std@@@std@@YAPAPAV?$basic_string@DU?$char_traits@D@std@@V?$allocator@D@2@@0@IPAPAV10@@Z 004056f0 f i DataType.obj
 0001:00004740       ??$_Allocate@U_Container_proxy@std@@@std@@YAPAU_Container_proxy@0@IPAU10@@Z 00405740 f i DataType.obj
 0001:00004790       ??$_Allocate@U?$_Tree_node@U?$pair@$$CBIN@std@@PAX@std@@@std@@YAPAU?$_Tree_node@U?$pair@$$CBIN@std@@PAX@0@IPAU10@@Z 00405790 f i DataType.obj
 0001:000047e0       ??0?$allocator@D@std@@QAE@ABV01@@Z 004057e0 f i DataType.obj
 0001:000047e0       ??$?0V?$basic_string@DU?$char_traits@D@std@@V?$allocator@D@2@@std@@@?$allocator@PAV?$basic_string@DU?$char_traits@D@std@@V?$allocator@D@2@@std@@@std@@QAE@ABV?$allocator@V?$basic_string@DU?$char_traits@D@std@@V?$allocator@D@2@@std@@@1@@Z 004057e0 f i DataType.obj
 0001:000047e0       ??$?0PAE@?$allocator@PAPAE@std@@QAE@ABV?$allocator@PAE@1@@Z 004057e0 f i DataType.obj
 0001:000047f0       ??$construct@V?$basic_string@DU?$char_traits@D@std@@V?$allocator@D@2@@std@@ABV12@@?$allocator_traits@V?$allocator@V?$basic_string@DU?$char_traits@D@std@@V?$allocator@D@2@@std@@@std@@@std@@SAXAAV?$allocator@V?$basic_string@DU?$char_traits@D@std@@V?$allocator@D@2@@std@@@1@PAV?$basic_string@DU?$char_traits@D@std@@V?$allocator@D@2@@1@ABV31@@Z 004057f0 f i DataType.obj
 0001:00004810       ??$destroy@V?$basic_string@DU?$char_traits@D@std@@V?$allocator@D@2@@std@@@?$allocator_traits@V?$allocator@V?$basic_string@DU?$char_traits@D@std@@V?$allocator@D@2@@std@@@std@@@std@@SAXAAV?$allocator@V?$basic_string@DU?$char_traits@D@std@@V?$allocator@D@2@@std@@@1@PAV?$basic_string@DU?$char_traits@D@std@@V?$allocator@D@2@@1@@Z 00405810 f i DataType.obj
 0001:00004830       ??$_Ptr_cat@HH@std@@YA?AU_Scalar_ptr_iterator_tag@0@PAH0@Z 00405830 f i EndoScopeMFCDlg.obj
 0001:00004830       ??$_Ptr_cat@PAUIBaseFilter@@PAU1@@std@@YA?AU_Scalar_ptr_iterator_tag@0@PAPAUIBaseFilter@@0@Z 00405830 f i EDSCapture.obj
 0001:00004830       ??$_Ptr_cat@PAV?$basic_string@DU?$char_traits@D@std@@V?$allocator@D@2@@std@@PAV12@@std@@YA?AU_Scalar_ptr_iterator_tag@0@PAPAV?$basic_string@DU?$char_traits@D@std@@V?$allocator@D@2@@0@0@Z 00405830 f i DataType.obj
 0001:00004840       ??$_Uninit_copy@PAV?$basic_string@DU?$char_traits@D@std@@V?$allocator@D@2@@std@@PAV12@@std@@YAPAPAV?$basic_string@DU?$char_traits@D@std@@V?$allocator@D@2@@0@PAPAV10@00AAU?$_Wrap_alloc@V?$allocator@PAV?$basic_string@DU?$char_traits@D@std@@V?$allocator@D@2@@std@@@std@@@0@U_Scalar_ptr_iterator_tag@0@@Z 00405840 f i DataType.obj
 0001:00004880       ??$_Val_type@PAPAV?$basic_string@DU?$char_traits@D@std@@V?$allocator@D@2@@std@@@std@@YAPAPAV?$basic_string@DU?$char_traits@D@std@@V?$allocator@D@2@@0@PAPAV10@@Z 00405880 f i DataType.obj
 0001:00004890       ??$_Uninit_def_fill_n@PAV?$basic_string@DU?$char_traits@D@std@@V?$allocator@D@2@@std@@IPAV12@@std@@YAXPAPAV?$basic_string@DU?$char_traits@D@std@@V?$allocator@D@2@@0@IAAU?$_Wrap_alloc@V?$allocator@PAV?$basic_string@DU?$char_traits@D@std@@V?$allocator@D@2@@std@@@std@@@0@0U_Scalar_ptr_iterator_tag@0@@Z 00405890 f i DataType.obj
 0001:000048c0       ??$construct@U_Container_proxy@std@@U12@@?$allocator_traits@V?$allocator@U_Container_proxy@std@@@std@@@std@@SAXAAV?$allocator@U_Container_proxy@std@@@1@PAU_Container_proxy@1@$$QAU31@@Z 004058c0 f i DataType.obj
 0001:000048e0       ?construct@?$allocator@V?$basic_string@DU?$char_traits@D@std@@V?$allocator@D@2@@std@@@std@@QAEXPAV?$basic_string@DU?$char_traits@D@std@@V?$allocator@D@2@@2@ABV32@@Z 004058e0 f i DataType.obj
 0001:00004960       ??0?$basic_string@DU?$char_traits@D@std@@V?$allocator@D@2@@std@@QAE@ABV01@@Z 00405960 f i DataType.obj
 0001:000049b0       ?select_on_container_copy_construction@?$_Wrap_alloc@V?$allocator@D@std@@@std@@QBE?AU12@XZ 004059b0 f i DataType.obj
 0001:000049e0       ?select_on_container_copy_construction@?$allocator_traits@V?$allocator@D@std@@@std@@SA?AV?$allocator@D@2@ABV32@@Z 004059e0 f i DataType.obj
 0001:00004a00       ?select_on_container_copy_construction@?$allocator@D@std@@QBE?AV12@XZ 00405a00 f i DataType.obj
 0001:00004a20       ??$destroy@V?$basic_string@DU?$char_traits@D@std@@V?$allocator@D@2@@std@@@?$allocator@V?$basic_string@DU?$char_traits@D@std@@V?$allocator@D@2@@std@@@std@@QAEXPAV?$basic_string@DU?$char_traits@D@std@@V?$allocator@D@2@@1@@Z 00405a20 f i DataType.obj
 0001:00004a40       ??$_Fill_n@PAPAV?$basic_string@DU?$char_traits@D@std@@V?$allocator@D@2@@std@@IPAV12@@std@@YAPAPAV?$basic_string@DU?$char_traits@D@std@@V?$allocator@D@2@@0@PAPAV10@IABQAV10@@Z 00405a40 f i DataType.obj
 0001:00004a70       ??$construct@U_Container_proxy@std@@U12@@?$allocator@U_Container_proxy@std@@@std@@QAEXPAU_Container_proxy@1@$$QAU21@@Z 00405a70 f i DataType.obj
 0001:00004b00       ??_G?$basic_string@DU?$char_traits@D@std@@V?$allocator@D@2@@std@@QAEPAXI@Z 00405b00 f i DataType.obj
 0001:00004b30       ?memcpy_s@Checked@ATL@@YAXPAXIPBXI@Z 00405b30 f i DataType.obj
 0001:00004b60       ??$AtlConvAllocMemory@D@ATL@@YAXPAPADHPADH@Z 00405b60 f i DataType.obj
 0001:00004ca0       ?AfxCrtErrorCheck@@YAHH@Z  00405ca0 f i DataType.obj
 0001:00004d50       ??$AtlConvFreeMemory@D@ATL@@YAXPAD0H@Z 00405d50 f i DataType.obj
 0001:00004d70       ?AtlThrowImpl@ATL@@YGXJ@Z  00405d70 f i DataType.obj
 0001:00004da0       ?_GetBaseClass@CEDSCapture@@KGPAUCRuntimeClass@@XZ 00405da0 f   EDSCapture.obj
 0001:00004db0       ?GetRuntimeClass@CEDSCapture@@UBEPAUCRuntimeClass@@XZ 00405db0 f   EDSCapture.obj
 0001:00004dc0       ??0CEDSCapture@@QAE@XZ     00405dc0 f   EDSCapture.obj
 0001:00004ed0       ??_GCEDSCapture@@UAEPAXI@Z 00405ed0 f i EDSCapture.obj
 0001:00004ed0       ??_ECEDSCapture@@UAEPAXI@Z 00405ed0 f i * CIL library *:* CIL module *
 0001:00004f00       ??1?$CComPtr@UIBaseFilter@@@ATL@@QAE@XZ 00405f00 f i EDSCapture.obj
 0001:00004f00       ??1?$CComPtr@UISampleGrabber@@@ATL@@QAE@XZ 00405f00 f i EDSCapture.obj
 0001:00004f00       ??1?$CComPtr@UIMoniker@@@ATL@@QAE@XZ 00405f00 f i EDSCapture.obj
 0001:00004f00       ??1?$CComPtr@UIEnumMoniker@@@ATL@@QAE@XZ 00405f00 f i EDSCapture.obj
 0001:00004f00       ??1?$CComPtr@UICreateDevEnum@@@ATL@@QAE@XZ 00405f00 f i EDSCapture.obj
 0001:00004f20       ??1CEDSCapture@@UAE@XZ     00405f20 f   EDSCapture.obj
 0001:00004fa0       ?GetMessageMap@CEDSCapture@@MBEPBUAFX_MSGMAP@@XZ 00405fa0 f   EDSCapture.obj
 0001:00004fb0       ?GetThisMessageMap@CEDSCapture@@KGPBUAFX_MSGMAP@@XZ 00405fb0 f   EDSCapture.obj
 0001:00004fc0       ?Init@CEDSCapture@@QAEJHPAUHWND__@@@Z 00405fc0 f   EDSCapture.obj
 0001:000054b0       ??1?$CComQIPtr@UIBaseFilter@@$1?IID_IBaseFilter@@3U_GUID@@B@ATL@@QAE@XZ 004064b0 f i EDSCapture.obj
 0001:000054d0       ?Pause@CEDSCapture@@QAEXXZ 004064d0 f   EDSCapture.obj
 0001:00005590       ?Run@CEDSCapture@@QAEXXZ   00406590 f   EDSCapture.obj
 0001:00005650       ?Stop@CEDSCapture@@QAEXXZ  00406650 f   EDSCapture.obj
 0001:00005710       ?Msg@CEDSCapture@@IAAXPADZZ 00406710 f   EDSCapture.obj
 0001:000057c0       ?FindCaptureDevice@CEDSCapture@@IAEJPAPAUIBaseFilter@@@Z 004067c0 f   EDSCapture.obj
 0001:00005b70       ?GetInterfaces@CEDSCapture@@IAEJXZ 00406b70 f   EDSCapture.obj
 0001:00005cb0       ?FreeMediaType@CEDSCapture@@IAEXAAU_AMMediaType@@@Z 00406cb0 f   EDSCapture.obj
 0001:00005d10       ??0?$vector@HV?$allocator@H@std@@@std@@QAE@XZ 00406d10 f i EndoScopeMFCDlg.obj
 0001:00005d10       ??0?$vector@PAUIBaseFilter@@V?$allocator@PAUIBaseFilter@@@std@@@std@@QAE@XZ 00406d10 f i EDSCapture.obj
 0001:00005d40       ??1?$vector@HV?$allocator@H@std@@@std@@QAE@XZ 00406d40 f i EndoScopeMFCDlg.obj
 0001:00005d40       ??1?$vector@PAUIBaseFilter@@V?$allocator@PAUIBaseFilter@@@std@@@std@@QAE@XZ 00406d40 f i EDSCapture.obj
 0001:00005d60       ??0?$CComPtr@UIBaseFilter@@@ATL@@QAE@XZ 00406d60 f i EDSCapture.obj
 0001:00005d60       ??0?$CComPtr@UISampleGrabber@@@ATL@@QAE@XZ 00406d60 f i EDSCapture.obj
 0001:00005d80       ??4?$CComPtr@UISampleGrabber@@@ATL@@QAEPAUISampleGrabber@@PAU2@@Z 00406d80 f i EDSCapture.obj
 0001:00005dd0       ??1?$CComPtrBase@UIMoniker@@@ATL@@QAE@XZ 00406dd0 f i EDSCapture.obj
 0001:00005dd0       ??1?$CComPtrBase@UICreateDevEnum@@@ATL@@QAE@XZ 00406dd0 f i EDSCapture.obj
 0001:00005dd0       ??1?$CComPtrBase@UISampleGrabber@@@ATL@@QAE@XZ 00406dd0 f i EDSCapture.obj
 0001:00005dd0       ??1?$CComPtrBase@UIBaseFilter@@@ATL@@QAE@XZ 00406dd0 f i EDSCapture.obj
 0001:00005dd0       ??1?$CComPtrBase@UIEnumMoniker@@@ATL@@QAE@XZ 00406dd0 f i EDSCapture.obj
 0001:00005e00       ??7?$CComPtrBase@UISampleGrabber@@@ATL@@QBE_NXZ 00406e00 f i EDSCapture.obj
 0001:00005e30       ?CoCreateInstance@?$CComPtrBase@UISampleGrabber@@@ATL@@QAEJABU_GUID@@PAUIUnknown@@K@Z 00406e30 f i EDSCapture.obj
 0001:00005e60       ??0?$CComQIPtr@UIBaseFilter@@$1?IID_IBaseFilter@@3U_GUID@@B@ATL@@QAE@PAUIUnknown@@@Z 00406e60 f i EDSCapture.obj
 0001:00005eb0       ??0?$CComPtr@UISampleGrabber@@@ATL@@QAE@PAUISampleGrabber@@@Z 00406eb0 f i EDSCapture.obj
 0001:00005eb0       ??0?$CComPtr@UIMoniker@@@ATL@@QAE@PAUIMoniker@@@Z 00406eb0 f i EDSCapture.obj
 0001:00005eb0       ??0?$CComPtr@UICreateDevEnum@@@ATL@@QAE@PAUICreateDevEnum@@@Z 00406eb0 f i EDSCapture.obj
 0001:00005eb0       ??0?$CComPtr@UIEnumMoniker@@@ATL@@QAE@PAUIEnumMoniker@@@Z 00406eb0 f i EDSCapture.obj
 0001:00005ed0       ??8?$CComPtrBase@UISampleGrabber@@@ATL@@QBE_NPAUISampleGrabber@@@Z 00406ed0 f i EDSCapture.obj
 0001:00005ed0       ??8?$CComPtrBase@UIEnumMoniker@@@ATL@@QBE_NPAUIEnumMoniker@@@Z 00406ed0 f i EDSCapture.obj
 0001:00005f00       ?_Tidy@?$vector@HV?$allocator@H@std@@@std@@IAEXXZ 00406f00 f i EndoScopeMFCDlg.obj
 0001:00005f00       ?_Tidy@?$vector@PAUIBaseFilter@@V?$allocator@PAUIBaseFilter@@@std@@@std@@IAEXXZ 00406f00 f i EDSCapture.obj
 0001:00005f80       ??0?$_Vector_alloc@$0A@U?$_Vec_base_types@HV?$allocator@H@std@@@std@@@std@@QAE@ABV?$allocator@H@1@@Z 00406f80 f i EndoScopeMFCDlg.obj
 0001:00005f80       ??0?$_Vector_alloc@$0A@U?$_Vec_base_types@PAUIBaseFilter@@V?$allocator@PAUIBaseFilter@@@std@@@std@@@std@@QAE@ABV?$allocator@PAUIBaseFilter@@@1@@Z 00406f80 f i EDSCapture.obj
 0001:00005fa0       ??0?$CComPtrBase@UISampleGrabber@@@ATL@@IAE@XZ 00406fa0 f i EDSCapture.obj
 0001:00005fa0       ??0?$CComPtrBase@UIBaseFilter@@@ATL@@IAE@XZ 00406fa0 f i EDSCapture.obj
 0001:00005fc0       ?Swap@?$CComPtrBase@UISampleGrabber@@@ATL@@IAEXAAV12@@Z 00406fc0 f i EDSCapture.obj
 0001:00005ff0       ??9?$CComPtrBase@UISampleGrabber@@@ATL@@QBE_NPAUISampleGrabber@@@Z 00406ff0 f i EDSCapture.obj
 0001:00006030       ??0?$CComPtrBase@UIEnumMoniker@@@ATL@@IAE@PAUIEnumMoniker@@@Z 00407030 f i EDSCapture.obj
 0001:00006030       ??0?$CComPtrBase@UICreateDevEnum@@@ATL@@IAE@PAUICreateDevEnum@@@Z 00407030 f i EDSCapture.obj
 0001:00006030       ??0?$CComPtrBase@UIMoniker@@@ATL@@IAE@PAUIMoniker@@@Z 00407030 f i EDSCapture.obj
 0001:00006030       ??0?$CComPtrBase@UISampleGrabber@@@ATL@@IAE@PAUISampleGrabber@@@Z 00407030 f i EDSCapture.obj
 0001:00006070       ?_Destroy@?$vector@HV?$allocator@H@std@@@std@@IAEXPAH0@Z 00407070 f i EndoScopeMFCDlg.obj
 0001:00006070       ?_Destroy@?$vector@PAUIBaseFilter@@V?$allocator@PAUIBaseFilter@@@std@@@std@@IAEXPAPAUIBaseFilter@@0@Z 00407070 f i EDSCapture.obj
 0001:000060c0       ??0?$_Vector_val@U?$_Simple_types@H@std@@@std@@QAE@XZ 004070c0 f i EndoScopeMFCDlg.obj
 0001:000060c0       ??0?$_Vector_val@U?$_Simple_types@PAUIBaseFilter@@@std@@@std@@QAE@XZ 004070c0 f i EDSCapture.obj
 0001:000060f0       ??$_vsnprintf_s@$0EAA@@@YAHAAY0EAA@DIPBDPAD@Z 004070f0 f i EDSCapture.obj
 0001:00006120       ?__autoclassinit@Mat@cv@@QAEXI@Z 00407120 f i EndoScopeMFC.obj
 0001:00006170       ?GetMessageMap@CEndoScopeMFCApp@@MBEPBUAFX_MSGMAP@@XZ 00407170 f   EndoScopeMFC.obj
 0001:00006180       ?GetThisMessageMap@CEndoScopeMFCApp@@KGPBUAFX_MSGMAP@@XZ 00407180 f   EndoScopeMFC.obj
 0001:00006190       ??0CEndoScopeMFCApp@@QAE@XZ 00407190 f   EndoScopeMFC.obj
 0001:000061c0       ??_ECEndoScopeMFCApp@@UAEPAXI@Z 004071c0 f i * CIL library *:* CIL module *
 0001:000061c0       ??_GCEndoScopeMFCApp@@UAEPAXI@Z 004071c0 f i EndoScopeMFC.obj
 0001:000061f0       ??1CEndoScopeMFCApp@@UAE@XZ 004071f0 f i EndoScopeMFC.obj
 0001:00006210       ?__autoclassinit@CEndoScopeMFCApp@@QAEXI@Z 00407210 f i EndoScopeMFC.obj
 0001:00006230       ?__autoclassinit@CWinApp@@QAEXI@Z 00407230 f i EndoScopeMFC.obj
 0001:00006320       ?__autoclassinit@CWinThread@@QAEXI@Z 00407320 f i EndoScopeMFC.obj
 0001:00006380       ?ExceptionHandler@@YGJPAU_EXCEPTION_POINTERS@@@Z 00407380 f   EndoScopeMFC.obj
 0001:00006420       ?InitInstance@CEndoScopeMFCApp@@UAEHXZ 00407420 f   EndoScopeMFC.obj
 0001:000065f0       ?__autoclassinit@CDC@@QAEXI@Z 004075f0 f i EndoScopeMFCDlg.obj
 0001:000065f0       ?__autoclassinit@CShellManager@@QAEXI@Z 004075f0 f i EndoScopeMFC.obj
 0001:00006620       ?__autoclassinit@CEndoScopeMFCDlg@@QAEXI@Z 00407620 f i EndoScopeMFC.obj
 0001:00006770       ?__autoclassinit@CDialogEx@@QAEXI@Z 00407770 f i EndoScopeMFC.obj
 0001:000067b0       ?__autoclassinit@CStatic@@QAEXI@Z 004077b0 f i EndoScopeMFC.obj
 0001:000067b0       ?__autoclassinit@CEdit@@QAEXI@Z 004077b0 f i EndoScopeMFCDlg.obj
 0001:000067d0       ?__autoclassinit@CEDSCapture@@QAEXI@Z 004077d0 f i EndoScopeMFC.obj
 0001:00006870       ?__autoclassinit@CAboutDlg@@QAEXI@Z 00407870 f i EndoScopeMFC.obj
 0001:00006870       ?__autoclassinit@CSetPSW@@QAEXI@Z 00407870 f i Login.obj
 0001:00006890       ?__autoclassinit@CDialog@@QAEXI@Z 00407890 f i EndoScopeMFC.obj
 0001:00006900       ?__autoclassinit@?$vector@PAUIBaseFilter@@V?$allocator@PAUIBaseFilter@@@std@@@std@@QAEXI@Z 00407900 f i EndoScopeMFC.obj
 0001:00006920       ?__autoclassinit@CEDSGrabberCB@@QAEXI@Z 00407920 f i EndoScopeMFC.obj
 0001:00006940       ?__autoclassinit@?$_Vector_alloc@$0A@U?$_Vec_base_types@PAUIBaseFilter@@V?$allocator@PAUIBaseFilter@@@std@@@std@@@std@@QAEXI@Z 00407940 f i EndoScopeMFC.obj
 0001:00006960       ?__autoclassinit@?$_Vector_val@U?$_Simple_types@PAUIBaseFilter@@@std@@@std@@QAEXI@Z 00407960 f i EndoScopeMFC.obj
 0001:00006990       ?ExitInstance@CEndoScopeMFCApp@@UAEHXZ 00407990 f   EndoScopeMFC.obj
 0001:000069b0       ?GetApplicationRecoveryPingInterval@CWinApp@@UAEKXZ 004079b0 f i EndoScopeMFC.obj
 0001:000069c0       ?GetApplicationRestartFlags@CWinApp@@UAEKXZ 004079c0 f i EndoScopeMFC.obj
 0001:000069c0       ?GetApplicationRecoveryParameter@CWinApp@@UAEPAXXZ 004079c0 f i EndoScopeMFC.obj
 0001:000069d0       ?RestoreAutosavedFilesAtRestart@CWinApp@@UBEHXZ 004079d0 f i EndoScopeMFC.obj
 0001:000069f0       ?ReopenPreviousFilesAtRestart@CWinApp@@UBEHXZ 004079f0 f i EndoScopeMFC.obj
 0001:00006a10       ?SupportsAutosaveAtInterval@CWinApp@@UBEHXZ 00407a10 f i EndoScopeMFC.obj
 0001:00006a30       ?SupportsAutosaveAtRestart@CWinApp@@UBEHXZ 00407a30 f i EndoScopeMFC.obj
 0001:00006a50       ?SupportsApplicationRecovery@CWinApp@@UBEHXZ 00407a50 f i EndoScopeMFC.obj
 0001:00006a70       ?SupportsRestartManager@CWinApp@@UBEHXZ 00407a70 f i EndoScopeMFC.obj
 0001:00006a90       ?__autoclassinit@CWnd@@QAEXI@Z 00407a90 f i EndoScopeMFC.obj
 0001:00006b10       ??2CObject@@SGPAXI@Z       00407b10 f i EndoScopeMFC.obj
 0001:00006b30       ?__autoclassinit@CCmdTarget@@QAEXI@Z 00407b30 f i EndoScopeMFC.obj
 0001:00006b60       ??0String@cv@@QAE@PBD@Z    00407b60 f i EndoScopeMFCDlg.obj
 0001:00006be0       ??1String@cv@@QAE@XZ       00407be0 f i EndoScopeMFCDlg.obj
 0001:00006c00       ?init@_InputArray@cv@@IAEXHPBX@Z 00407c00 f i EndoScopeMFCDlg.obj
 0001:00006c20       ??0_InputArray@cv@@QAE@XZ  00407c20 f i EndoScopeMFCDlg.obj
 0001:00006c50       ??0_InputArray@cv@@QAE@ABVMat@1@@Z 00407c50 f i EndoScopeMFCDlg.obj
 0001:00006c80       ??0_OutputArray@cv@@QAE@AAVMat@1@@Z 00407c80 f i EndoScopeMFCDlg.obj
 0001:00006cf0       ??1_OutputArray@cv@@QAE@XZ 00407cf0 f i EndoScopeMFCDlg.obj
 0001:00006d10       ??0Mat@cv@@QAE@XZ          00407d10 f i EndoScopeMFCDlg.obj
 0001:00006da0       ??0Mat@cv@@QAE@HHH@Z       00407da0 f i EndoScopeMFCDlg.obj
 0001:00006e50       ??0Mat@cv@@QAE@HHHABV?$Scalar_@N@1@@Z 00407e50 f i EndoScopeMFCDlg.obj
 0001:00006f10       ??0Mat@cv@@QAE@V?$Size_@H@1@H@Z 00407f10 f i EndoScopeMFCDlg.obj
 0001:00006fc0       ??0Mat@cv@@QAE@HHHPAXI@Z   00407fc0 f i EndoScopeMFCDlg.obj
 0001:00007220       ??1Mat@cv@@QAE@XZ          00408220 f i EndoScopeMFCDlg.obj
 0001:00007260       ?create@Mat@cv@@QAEXHHH@Z  00408260 f i EndoScopeMFCDlg.obj
 0001:000072f0       ?release@Mat@cv@@QAEXXZ    004082f0 f i EndoScopeMFCDlg.obj
 0001:00007390       ??RMat@cv@@QBE?AV01@ABV?$Rect_@H@1@@Z 00408390 f i EndoScopeMFCDlg.obj
 0001:000073d0       ?type@Mat@cv@@QBEHXZ       004083d0 f i EndoScopeMFCDlg.obj
 0001:000073f0       ?empty@Mat@cv@@QBE_NXZ     004083f0 f i EndoScopeMFCDlg.obj
 0001:00007430       ?total@Mat@cv@@QBEIXZ      00408430 f i EndoScopeMFCDlg.obj
 0001:000074a0       ??4Mat@cv@@QAEAAV01@$$QAV01@@Z 004084a0 f i EndoScopeMFCDlg.obj
 0001:00007660       ??0MatSize@cv@@QAE@PAH@Z   00408660 f i EndoScopeMFCDlg.obj
 0001:00007680       ??AMatSize@cv@@QBEABHH@Z   00408680 f i EndoScopeMFCDlg.obj
 0001:00007680       ??AMatStep@cv@@QAEAAIH@Z   00408680 f i EndoScopeMFCDlg.obj
 0001:000076a0       ??0MatStep@cv@@QAE@XZ      004086a0 f i EndoScopeMFCDlg.obj
 0001:000076f0       ??0String@cv@@QAE@ABV?$basic_string@DU?$char_traits@D@std@@V?$allocator@D@2@@std@@@Z 004086f0 f i EndoScopeMFCDlg.obj
 0001:000077b0       ?NowEnter@CPLC@@QAEHXZ     004087b0 f i EndoScopeMFCDlg.obj
 0001:00007800       ?OverEnter@CPLC@@QAEHXZ    00408800 f i EndoScopeMFCDlg.obj
 0001:00007850       ?NowVideo@CPLC@@QAEHXZ     00408850 f i EndoScopeMFCDlg.obj
 0001:000078a0       ?StopVideo@CPLC@@QAEHXZ    004088a0 f i EndoScopeMFCDlg.obj
 0001:000078f0       ?NowSave@CPLC@@QAEHXZ      004088f0 f i EndoScopeMFCDlg.obj
 0001:00007940       ?OverSave@CPLC@@QAEHXZ     00408940 f i EndoScopeMFCDlg.obj
 0001:00007990       ?NotLink@CPLC@@QAEHXZ      00408990 f i EndoScopeMFCDlg.obj
 0001:000079e0       ?AverageMetering@CPLC@@QAEHXZ 004089e0 f i EndoScopeMFCDlg.obj
 0001:00007a80       ?PeakMetering@CPLC@@QAEHXZ 00408a80 f i EndoScopeMFCDlg.obj
 0001:00007b20       ?B@CPLC@@QAEHH@Z           00408b20 f i EndoScopeMFCDlg.obj
 0001:00007c10       ?R@CPLC@@QAEHH@Z           00408c10 f i EndoScopeMFCDlg.obj
 0001:00007d00       ?Zoom1@CPLC@@QAEHXZ        00408d00 f i EndoScopeMFCDlg.obj
 0001:00007d50       ?Zoom2@CPLC@@QAEHXZ        00408d50 f i EndoScopeMFCDlg.obj
 0001:00007da0       ?Zoom3@CPLC@@QAEHXZ        00408da0 f i EndoScopeMFCDlg.obj
 0001:00007df0       ?Zoom4@CPLC@@QAEHXZ        00408df0 f i EndoScopeMFCDlg.obj
 0001:00007e40       ?SetCircular@CPLC@@QAEHXZ  00408e40 f i EndoScopeMFCDlg.obj
 0001:00007e90       ?SetSquare@CPLC@@QAEHXZ    00408e90 f i EndoScopeMFCDlg.obj
 0001:00007ee0       ?OpenLight@CPLC@@QAEHXZ    00408ee0 f i EndoScopeMFCDlg.obj
 0001:00007f30       ?CloseLight@CPLC@@QAEHXZ   00408f30 f i EndoScopeMFCDlg.obj
 0001:00007f80       ?Light@CPLC@@QAEHH@Z       00408f80 f i EndoScopeMFCDlg.obj
 0001:00007fe0       ?Brightness0@CPLC@@QAEHXZ  00408fe0 f i EndoScopeMFCDlg.obj
 0001:00008090       ?Brightness1@CPLC@@QAEHXZ  00409090 f i EndoScopeMFCDlg.obj
 0001:00008140       ?Brightness2@CPLC@@QAEHXZ  00409140 f i EndoScopeMFCDlg.obj
 0001:000081f0       ?Brightness3@CPLC@@QAEHXZ  004091f0 f i EndoScopeMFCDlg.obj
 0001:000082a0       ?Brightness4@CPLC@@QAEHXZ  004092a0 f i EndoScopeMFCDlg.obj
 0001:00008350       ?Brightness5@CPLC@@QAEHXZ  00409350 f i EndoScopeMFCDlg.obj
 0001:00008400       ?Brightness6@CPLC@@QAEHXZ  00409400 f i EndoScopeMFCDlg.obj
 0001:000084b0       ?Brightness7@CPLC@@QAEHXZ  004094b0 f i EndoScopeMFCDlg.obj
 0001:00008560       ?Brightness8@CPLC@@QAEHXZ  00409560 f i EndoScopeMFCDlg.obj
 0001:00008610       ?Brightness9@CPLC@@QAEHXZ  00409610 f i EndoScopeMFCDlg.obj
 0001:000086c0       ?Brightness10@CPLC@@QAEHXZ 004096c0 f i EndoScopeMFCDlg.obj
 0001:00008770       ?Brightness11@CPLC@@QAEHXZ 00409770 f i EndoScopeMFCDlg.obj
 0001:00008820       ?Brightness12@CPLC@@QAEHXZ 00409820 f i EndoScopeMFCDlg.obj
 0001:000088d0       ?Brightness13@CPLC@@QAEHXZ 004098d0 f i EndoScopeMFCDlg.obj
 0001:00008980       ?Brightness14@CPLC@@QAEHXZ 00409980 f i EndoScopeMFCDlg.obj
 0001:00008a30       ?Brightness15@CPLC@@QAEHXZ 00409a30 f i EndoScopeMFCDlg.obj
 0001:00008ae0       ?Brightness16@CPLC@@QAEHXZ 00409ae0 f i EndoScopeMFCDlg.obj
 0001:00008b90       ?Brightness17@CPLC@@QAEHXZ 00409b90 f i EndoScopeMFCDlg.obj
 0001:00008c40       ?Brightness18@CPLC@@QAEHXZ 00409c40 f i EndoScopeMFCDlg.obj
 0001:00008cf0       ?Brightness19@CPLC@@QAEHXZ 00409cf0 f i EndoScopeMFCDlg.obj
 0001:00008da0       ?Brightness20@CPLC@@QAEHXZ 00409da0 f i EndoScopeMFCDlg.obj
 0001:00008e50       ?Contrast@CPLC@@QAEHH@Z    00409e50 f i EndoScopeMFCDlg.obj
 0001:00008f20       ?Saturation@CPLC@@QAEHH@Z  00409f20 f i EndoScopeMFCDlg.obj
 0001:00008ff0       ?Exposure0@CPLC@@QAEHXZ    00409ff0 f i EndoScopeMFCDlg.obj
 0001:000090c0       ?Exposure1@CPLC@@QAEHXZ    0040a0c0 f i EndoScopeMFCDlg.obj
 0001:00009170       ?Exposure2@CPLC@@QAEHXZ    0040a170 f i EndoScopeMFCDlg.obj
 0001:00009220       ?Exposure3@CPLC@@QAEHXZ    0040a220 f i EndoScopeMFCDlg.obj
 0001:000092d0       ?Exposure4@CPLC@@QAEHXZ    0040a2d0 f i EndoScopeMFCDlg.obj
 0001:00009380       ?Exposure5@CPLC@@QAEHXZ    0040a380 f i EndoScopeMFCDlg.obj
 0001:00009430       ?Exposure6@CPLC@@QAEHXZ    0040a430 f i EndoScopeMFCDlg.obj
 0001:000094e0       ?Exposure7@CPLC@@QAEHXZ    0040a4e0 f i EndoScopeMFCDlg.obj
 0001:00009590       ?Exposure8@CPLC@@QAEHXZ    0040a590 f i EndoScopeMFCDlg.obj
 0001:00009640       ?Exposure9@CPLC@@QAEHXZ    0040a640 f i EndoScopeMFCDlg.obj
 0001:000096f0       ?Exposure10@CPLC@@QAEHXZ   0040a6f0 f i EndoScopeMFCDlg.obj
 0001:000097a0       ?Sharpness@CPLC@@QAEHH@Z   0040a7a0 f i EndoScopeMFCDlg.obj
 0001:00009870       ?Gain@CPLC@@QAEHH@Z        0040a870 f i EndoScopeMFCDlg.obj
 0001:00009940       ?WhiteBalance@CPLC@@QAEHXZ 0040a940 f i EndoScopeMFCDlg.obj
 0001:000099c0       ?MenuStart@CPLC@@QAEHXZ    0040a9c0 f i EndoScopeMFCDlg.obj
 0001:00009a40       ?MenuStop@CPLC@@QAEHXZ     0040aa40 f i EndoScopeMFCDlg.obj
 0001:00009ac0       ?MenuUp@CPLC@@QAEHXZ       0040aac0 f i EndoScopeMFCDlg.obj
 0001:00009b40       ?MenuDown@CPLC@@QAEHXZ     0040ab40 f i EndoScopeMFCDlg.obj
 0001:00009bc0       ?MenuLeft@CPLC@@QAEHXZ     0040abc0 f i EndoScopeMFCDlg.obj
 0001:00009c40       ?MenuRight@CPLC@@QAEHXZ    0040ac40 f i EndoScopeMFCDlg.obj
 0001:00009cc0       ?MenuEnter@CPLC@@QAEHXZ    0040acc0 f i EndoScopeMFCDlg.obj
 0001:00009d40       ?FirstDriveFromMask@@YADK@Z 0040ad40 f   EndoScopeMFCDlg.obj
 0001:00009d80       ??0CAboutDlg@@QAE@XZ       0040ad80 f   EndoScopeMFCDlg.obj
 0001:00009e50       ??_ECAboutDlg@@UAEPAXI@Z   0040ae50 f i * CIL library *:* CIL module *
 0001:00009e50       ??_GCAboutDlg@@UAEPAXI@Z   0040ae50 f i EndoScopeMFCDlg.obj
 0001:00009e80       ??1CAboutDlg@@UAE@XZ       0040ae80 f i EndoScopeMFCDlg.obj
 0001:00009ec0       ?GetMessageMap@CAboutDlg@@MBEPBUAFX_MSGMAP@@XZ 0040aec0 f   EndoScopeMFCDlg.obj
 0001:00009ed0       ?GetThisMessageMap@CAboutDlg@@KGPBUAFX_MSGMAP@@XZ 0040aed0 f   EndoScopeMFCDlg.obj
 0001:00009ee0       ?OnClose@CAboutDlg@@QAEXXZ 0040aee0 f   EndoScopeMFCDlg.obj
 0001:00009f00       ?OnInitDialog@CAboutDlg@@UAEHXZ 0040af00 f   EndoScopeMFCDlg.obj
 0001:00009f70       ??0CEndoScopeMFCDlg@@QAE@PAVCWnd@@@Z 0040af70 f   EndoScopeMFCDlg.obj
 0001:0000a0f0       ??_GCEndoScopeMFCDlg@@UAEPAXI@Z 0040b0f0 f i EndoScopeMFCDlg.obj
 0001:0000a0f0       ??_ECEndoScopeMFCDlg@@UAEPAXI@Z 0040b0f0 f i * CIL library *:* CIL module *
 0001:0000a120       ??1CEndoScopeMFCDlg@@UAE@XZ 0040b120 f   EndoScopeMFCDlg.obj
 0001:0000a450       ?GetMessageMap@CEndoScopeMFCDlg@@MBEPBUAFX_MSGMAP@@XZ 0040b450 f   EndoScopeMFCDlg.obj
 0001:0000a460       ?GetThisMessageMap@CEndoScopeMFCDlg@@KGPBUAFX_MSGMAP@@XZ 0040b460 f   EndoScopeMFCDlg.obj
 0001:0000a470       ?OnInitDialog@CEndoScopeMFCDlg@@MAEHXZ 0040b470 f   EndoScopeMFCDlg.obj
 0001:0000a650       ?OnSysCommand@CEndoScopeMFCDlg@@IAEXIJ@Z 0040b650 f   EndoScopeMFCDlg.obj
 0001:0000a700       ?OnPaint@CEndoScopeMFCDlg@@IAEXXZ 0040b700 f   EndoScopeMFCDlg.obj
 0001:0000a820       ?__autoclassinit@CPaintDC@@QAEXI@Z 0040b820 f i EndoScopeMFCDlg.obj
 0001:0000a850       ?OnQueryDragIcon@CEndoScopeMFCDlg@@IAEPAUHICON__@@XZ 0040b850 f   EndoScopeMFCDlg.obj
 0001:0000a870       ?InitializecvWindow@CEndoScopeMFCDlg@@AAEXXZ 0040b870 f   EndoScopeMFCDlg.obj
 0001:0000a980       ?WindowProc@CEndoScopeMFCDlg@@MAEJIIJ@Z 0040b980 f   EndoScopeMFCDlg.obj
 0001:0000ab70       ?InitializePLC@CEndoScopeMFCDlg@@AAEXXZ 0040bb70 f   EndoScopeMFCDlg.obj
 0001:0000acf0       ?__autoclassinit@CPLC@@QAEXI@Z 0040bcf0 f i EndoScopeMFCDlg.obj
 0001:0000ad30       ?__autoclassinit@CVideoComIO@@QAEXI@Z 0040bd30 f i EndoScopeMFCDlg.obj
 0001:0000ad30       ?__autoclassinit@CLightComIO@@QAEXI@Z 0040bd30 f i EndoScopeMFCDlg.obj
 0001:0000ad60       ?__autoclassinit@CProcessCard@@QAEXI@Z 0040bd60 f i EndoScopeMFCDlg.obj
 0001:0000ad90       ?OnBnClickedButRun@CEndoScopeMFCDlg@@QAEXXZ 0040bd90 f   EndoScopeMFCDlg.obj
 0001:0000add0       ?InitParameter@CEndoScopeMFCDlg@@AAEXXZ 0040bdd0 f   EndoScopeMFCDlg.obj
 0001:0000b190       ?OnBnClickedButPause@CEndoScopeMFCDlg@@QAEXXZ 0040c190 f   EndoScopeMFCDlg.obj
 0001:0000b1d0       ?OnBnClickedButStop@CEndoScopeMFCDlg@@QAEXXZ 0040c1d0 f   EndoScopeMFCDlg.obj
 0001:0000b210       ?SavePicThreadProc@CEndoScopeMFCDlg@@CAIPAX@Z 0040c210 f   EndoScopeMFCDlg.obj
 0001:0000b3f0       ?ShotPicWindow@CEndoScopeMFCDlg@@QAEXXZ 0040c3f0 f   EndoScopeMFCDlg.obj
 0001:0000b570       ?GetSaveImgPath@CEndoScopeMFCDlg@@QAE?AV?$basic_string@DU?$char_traits@D@std@@V?$allocator@D@2@@std@@H@Z 0040c570 f   EndoScopeMFCDlg.obj
 0001:0000b890       ?InitializeFormBoxLayout@CEndoScopeMFCDlg@@QAEXXZ 0040c890 f   EndoScopeMFCDlg.obj
 0001:0000c390       ?OnCtlColor@CEndoScopeMFCDlg@@QAEPAUHBRUSH__@@PAVCDC@@PAVCWnd@@I@Z 0040d390 f   EndoScopeMFCDlg.obj
 0001:0000c450       ?SetPicWidowShape@CEndoScopeMFCDlg@@QAEXXZ 0040d450 f   EndoScopeMFCDlg.obj
 0001:0000c770       ?VideoZoom@CEndoScopeMFCDlg@@AAEXXZ 0040d770 f   EndoScopeMFCDlg.obj
 0001:0000c900       ?PreTranslateMessage@CEndoScopeMFCDlg@@UAEHPAUtagMSG@@@Z 0040d900 f   EndoScopeMFCDlg.obj
 0001:0000cdd0       ?ShowCurrentDateTime@CEndoScopeMFCDlg@@AAEXXZ 0040ddd0 f   EndoScopeMFCDlg.obj
 0001:0000ceb0       ?OnTimer@CEndoScopeMFCDlg@@QAEXI@Z 0040deb0 f   EndoScopeMFCDlg.obj
 0001:0000cf70       ?InitializeThread@CEndoScopeMFCDlg@@AAEXXZ 0040df70 f   EndoScopeMFCDlg.obj
 0001:0000cfd0       ?RecvVideoThreadFunc@CEndoScopeMFCDlg@@CAIPAX@Z 0040dfd0 f   EndoScopeMFCDlg.obj
 0001:0000d120       ?ShowVideoThreadFunc@CEndoScopeMFCDlg@@CAIPAX@Z 0040e120 f   EndoScopeMFCDlg.obj
 0001:0000d630       ?ScreenCAPThreadProc@CEndoScopeMFCDlg@@CAIPAX@Z 0040e630 f   EndoScopeMFCDlg.obj
 0001:0000d780       ?ShowEndoscopeInfo@CEndoScopeMFCDlg@@QAEXPAEH@Z 0040e780 f   EndoScopeMFCDlg.obj
 0001:0000da80       ?OnCtlData@CEndoScopeMFCDlg@@QAEJIJ@Z 0040ea80 f   EndoScopeMFCDlg.obj
 0001:0000dd70       ?ImageSetting@CEndoScopeMFCDlg@@QAEXPAE@Z 0040ed70 f   EndoScopeMFCDlg.obj
 0001:0000df40       ?UpdateWhiteBalance@CEndoScopeMFCDlg@@QAEXXZ 0040ef40 f   EndoScopeMFCDlg.obj
 0001:0000dfb0       ?LightControler@CEndoScopeMFCDlg@@QAEXPAE@Z 0040efb0 f   EndoScopeMFCDlg.obj
 0001:0000e040       ?RestoreFactorySetting@CEndoScopeMFCDlg@@QAEXXZ 0040f040 f   EndoScopeMFCDlg.obj
 0001:0000e5b0       ?SetModeofMeterLight@CEndoScopeMFCDlg@@QAEXPAE@Z 0040f5b0 f   EndoScopeMFCDlg.obj
 0001:0000e670       ?ChangeImageRB@CEndoScopeMFCDlg@@QAEXPAEH@Z 0040f670 f   EndoScopeMFCDlg.obj
 0001:0000ec00       ?SaveVideo@CEndoScopeMFCDlg@@QAEXXZ 0040fc00 f   EndoScopeMFCDlg.obj
 0001:0000ede0       ?MoveDatatoUSBDevice@CEndoScopeMFCDlg@@QAEXXZ 0040fde0 f   EndoScopeMFCDlg.obj
 0001:0000ee20       ?EnterPatientInfo@CEndoScopeMFCDlg@@QAEXXZ 0040fe20 f   EndoScopeMFCDlg.obj
 0001:0000efa0       ?BrightnessAdd@CEndoScopeMFCDlg@@AAEXXZ 0040ffa0 f   EndoScopeMFCDlg.obj
 0001:0000f1a0       ?BrightnessSub@CEndoScopeMFCDlg@@AAEXXZ 004101a0 f   EndoScopeMFCDlg.obj
 0001:0000f3a0       ?ContrastAdd@CEndoScopeMFCDlg@@AAEXXZ 004103a0 f   EndoScopeMFCDlg.obj
 0001:0000f3e0       ?ContrastSub@CEndoScopeMFCDlg@@AAEXXZ 004103e0 f   EndoScopeMFCDlg.obj
 0001:0000f420       ?SaturationAdd@CEndoScopeMFCDlg@@AAEXXZ 00410420 f   EndoScopeMFCDlg.obj
 0001:0000f460       ?SaturationSub@CEndoScopeMFCDlg@@AAEXXZ 00410460 f   EndoScopeMFCDlg.obj
 0001:0000f4a0       ?SharpnessAdd@CEndoScopeMFCDlg@@AAEXXZ 004104a0 f   EndoScopeMFCDlg.obj
 0001:0000f4e0       ?SharpnessSub@CEndoScopeMFCDlg@@AAEXXZ 004104e0 f   EndoScopeMFCDlg.obj
 0001:0000f520       ?GainAdd@CEndoScopeMFCDlg@@AAEXXZ 00410520 f   EndoScopeMFCDlg.obj
 0001:0000f560       ?GainSub@CEndoScopeMFCDlg@@AAEXXZ 00410560 f   EndoScopeMFCDlg.obj
 0001:0000f5a0       ?ExposeAdd@CEndoScopeMFCDlg@@AAE_NXZ 004105a0 f   EndoScopeMFCDlg.obj
 0001:0000f720       ?ExposeSub@CEndoScopeMFCDlg@@AAE_NXZ 00410720 f   EndoScopeMFCDlg.obj
 0001:0000f8a0       ?MenuStart@CEndoScopeMFCDlg@@AAE_NXZ 004108a0 f   EndoScopeMFCDlg.obj
 0001:0000f8e0       ?MenuStop@CEndoScopeMFCDlg@@AAE_NXZ 004108e0 f   EndoScopeMFCDlg.obj
 0001:0000f920       ?MenuUp@CEndoScopeMFCDlg@@AAE_NXZ 00410920 f   EndoScopeMFCDlg.obj
 0001:0000f960       ?MenuDown@CEndoScopeMFCDlg@@AAE_NXZ 00410960 f   EndoScopeMFCDlg.obj
 0001:0000f9a0       ?MenuLeft@CEndoScopeMFCDlg@@AAE_NXZ 004109a0 f   EndoScopeMFCDlg.obj
 0001:0000f9e0       ?MenuRight@CEndoScopeMFCDlg@@AAE_NXZ 004109e0 f   EndoScopeMFCDlg.obj
 0001:0000fa20       ?MenuEnter@CEndoScopeMFCDlg@@AAE_NXZ 00410a20 f   EndoScopeMFCDlg.obj
 0001:0000fa60       ?CutDirFileAPI@@YAHV?$CStringT@DV?$StrTraitMFC_DLL@DV?$ChTraitsCRT@D@ATL@@@@@ATL@@0@Z 00410a60 f   EndoScopeMFCDlg.obj
 0001:0000fe10       ?SaveToPeripherals@CEndoScopeMFCDlg@@AAEXXZ 00410e10 f   EndoScopeMFCDlg.obj
 0001:00010160       ?__autoclassinit@Login@@QAEXI@Z 00411160 f i EndoScopeMFCDlg.obj
 0001:000101b0       ?OnBnClickedOk@CAboutDlg@@QAEXXZ 004111b0 f   EndoScopeMFCDlg.obj
 0001:000101d0       ?AdjWhiteBalance@CEndoScopeMFCDlg@@QAEXPAEHHPAPAE@Z 004111d0 f   EndoScopeMFCDlg.obj
 0001:00010270       ?CalWhilteLamda@CEndoScopeMFCDlg@@QAEXPAE@Z 00411270 f   EndoScopeMFCDlg.obj
 0001:00010a10       ??_D?$basic_ofstream@DU?$char_traits@D@std@@@std@@QAEXXZ 00411a10 f i EndoScopeMFCDlg.obj
 0001:00010a40       ?__autoclassinit@?$basic_ofstream@DU?$char_traits@D@std@@@std@@QAEXI@Z 00411a40 f i EndoScopeMFCDlg.obj
 0001:00010a60       ?__autoclassinit@?$basic_filebuf@DU?$char_traits@D@std@@@std@@QAEXI@Z 00411a60 f i EndoScopeMFCDlg.obj
 0001:00010aa0       ?IniWhilteLamda@CEndoScopeMFCDlg@@QAEXXZ 00411aa0 f   EndoScopeMFCDlg.obj
 0001:00010c50       ??_D?$basic_ifstream@DU?$char_traits@D@std@@@std@@QAEXXZ 00411c50 f i EndoScopeMFCDlg.obj
 0001:00010c80       ?__autoclassinit@?$basic_ifstream@DU?$char_traits@D@std@@@std@@QAEXI@Z 00411c80 f i EndoScopeMFCDlg.obj
 0001:00010ca0       ?SetZoom@CEndoScopeMFCDlg@@QAEXN@Z 00411ca0 f   EndoScopeMFCDlg.obj
 0001:00010d50       ?GetPicture@CEndoScopeMFCDlg@@QAEPAEXZ 00411d50 f   EndoScopeMFCDlg.obj
 0001:00010ec0       ??HATL@@YA?AV?$CStringT@DV?$StrTraitMFC_DLL@DV?$ChTraitsCRT@D@ATL@@@@@0@ABV10@0@Z 00411ec0 f i EndoScopeMFCDlg.obj
 0001:00010f80       ??0?$list@PAEV?$allocator@PAE@std@@@std@@QAE@XZ 00411f80 f i EndoScopeMFCDlg.obj
 0001:00010fb0       ??1?$list@PAEV?$allocator@PAE@std@@@std@@QAE@XZ 00411fb0 f i EndoScopeMFCDlg.obj
 0001:00010fd0       ?empty@?$list@PAEV?$allocator@PAE@std@@@std@@QBE_NXZ 00411fd0 f i EndoScopeMFCDlg.obj
 0001:00011000       ?front@?$list@PAEV?$allocator@PAE@std@@@std@@QAEAAPAEXZ 00412000 f i EndoScopeMFCDlg.obj
 0001:00011020       ?pop_front@?$list@PAEV?$allocator@PAE@std@@@std@@QAEXXZ 00412020 f i EndoScopeMFCDlg.obj
 0001:00011050       ?push_back@?$list@PAEV?$allocator@PAE@std@@@std@@QAEXABQAE@Z 00412050 f i EndoScopeMFCDlg.obj
 0001:00011080       ?clear@?$list@PAEV?$allocator@PAE@std@@@std@@QAEXXZ 00412080 f i EndoScopeMFCDlg.obj
 0001:00011110       ??0?$basic_ofstream@DU?$char_traits@D@std@@@std@@QAE@PBDHH@Z 00412110 f i EndoScopeMFCDlg.obj
 0001:00011220       ??1?$basic_ofstream@DU?$char_traits@D@std@@@std@@UAE@XZ 00412220 f i EndoScopeMFCDlg.obj
 0001:00011280       ?close@?$basic_ofstream@DU?$char_traits@D@std@@@std@@QAEXXZ 00412280 f i EndoScopeMFCDlg.obj
 0001:000112c0       ??1?$basic_filebuf@DU?$char_traits@D@std@@@std@@UAE@XZ 004122c0 f i EndoScopeMFCDlg.obj
 0001:00011310       ?_Lock@?$basic_filebuf@DU?$char_traits@D@std@@@std@@UAEXXZ 00412310 f i EndoScopeMFCDlg.obj
 0001:00011340       ?_Unlock@?$basic_filebuf@DU?$char_traits@D@std@@@std@@UAEXXZ 00412340 f i EndoScopeMFCDlg.obj
 0001:00011370       ?overflow@?$basic_filebuf@DU?$char_traits@D@std@@@std@@MAEHH@Z 00412370 f i EndoScopeMFCDlg.obj
 0001:00011690       ?pbackfail@?$basic_filebuf@DU?$char_traits@D@std@@@std@@MAEHH@Z 00412690 f i EndoScopeMFCDlg.obj
 0001:000117f0       ?underflow@?$basic_filebuf@DU?$char_traits@D@std@@@std@@MAEHXZ 004127f0 f i EndoScopeMFCDlg.obj
 0001:000118a0       ?uflow@?$basic_filebuf@DU?$char_traits@D@std@@@std@@MAEHXZ 004128a0 f i EndoScopeMFCDlg.obj
 0001:00011b90       ?seekoff@?$basic_filebuf@DU?$char_traits@D@std@@@std@@MAE?AV?$fpos@H@2@_JHH@Z 00412b90 f i EndoScopeMFCDlg.obj
 0001:00011c90       ?seekpos@?$basic_filebuf@DU?$char_traits@D@std@@@std@@MAE?AV?$fpos@H@2@V32@H@Z 00412c90 f i EndoScopeMFCDlg.obj
 0001:00011d90       ?setbuf@?$basic_filebuf@DU?$char_traits@D@std@@@std@@MAEPAV?$basic_streambuf@DU?$char_traits@D@std@@@2@PAD_J@Z 00412d90 f i EndoScopeMFCDlg.obj
 0001:00011e00       ?sync@?$basic_filebuf@DU?$char_traits@D@std@@@std@@MAEHXZ 00412e00 f i EndoScopeMFCDlg.obj
 0001:00011e80       ?imbue@?$basic_filebuf@DU?$char_traits@D@std@@@std@@MAEXABVlocale@2@@Z 00412e80 f i EndoScopeMFCDlg.obj
 0001:00011eb0       ??0?$basic_ifstream@DU?$char_traits@D@std@@@std@@QAE@PBDHH@Z 00412eb0 f i EndoScopeMFCDlg.obj
 0001:00011fc0       ??1?$basic_ifstream@DU?$char_traits@D@std@@@std@@UAE@XZ 00412fc0 f i EndoScopeMFCDlg.obj
 0001:00012020       ?close@?$basic_ifstream@DU?$char_traits@D@std@@@std@@QAEXXZ 00413020 f i EndoScopeMFCDlg.obj
 0001:00012060       ??1?$_List_buy@PAEV?$allocator@PAE@std@@@std@@QAE@XZ 00413060 f i EndoScopeMFCDlg.obj
 0001:00012080       ??_G?$basic_ofstream@DU?$char_traits@D@std@@@std@@UAEPAXI@Z 00413080 f i EndoScopeMFCDlg.obj
 0001:00012080       ??_E?$basic_ofstream@DU?$char_traits@D@std@@@std@@UAEPAXI@Z 00413080 f i * CIL library *:* CIL module *
 0001:000120c0       ??_E?$basic_filebuf@DU?$char_traits@D@std@@@std@@UAEPAXI@Z 004130c0 f i * CIL library *:* CIL module *
 0001:000120c0       ??_G?$basic_filebuf@DU?$char_traits@D@std@@@std@@UAEPAXI@Z 004130c0 f i EndoScopeMFCDlg.obj
 0001:000120f0       ??_E?$basic_ifstream@DU?$char_traits@D@std@@@std@@UAEPAXI@Z 004130f0 f i * CIL library *:* CIL module *
 0001:000120f0       ??_G?$basic_ifstream@DU?$char_traits@D@std@@@std@@UAEPAXI@Z 004130f0 f i EndoScopeMFCDlg.obj
 0001:00012130       ??0?$fpos@H@std@@QAE@H_J@Z 00413130 f i EndoScopeMFCDlg.obj
 0001:00012170       ?seekpos@?$fpos@H@std@@QBE_JXZ 00413170 f i EndoScopeMFCDlg.obj
 0001:00012190       ??B?$fpos@H@std@@QBE_JXZ   00413190 f i EndoScopeMFCDlg.obj
 0001:000121c0       ??D?$_String_iterator@V?$_String_val@U?$_Simple_types@D@std@@@std@@@std@@QBEAADXZ 004131c0 f i EndoScopeMFCDlg.obj
 0001:000121e0       ?begin@?$list@PAEV?$allocator@PAE@std@@@std@@QAE?AV?$_List_iterator@V?$_List_val@U?$_List_simple_types@PAE@std@@@std@@@2@XZ 004131e0 f i EndoScopeMFCDlg.obj
 0001:00012210       ?_Unchecked_end@?$list@PAEV?$allocator@PAE@std@@@std@@QAE?AV?$_List_unchecked_iterator@V?$_List_val@U?$_List_simple_types@PAE@std@@@std@@@2@XZ 00413210 f i EndoScopeMFCDlg.obj
 0001:00012240       ?erase@?$list@PAEV?$allocator@PAE@std@@@std@@QAE?AV?$_List_iterator@V?$_List_val@U?$_List_simple_types@PAE@std@@@std@@@2@V?$_List_const_iterator@V?$_List_val@U?$_List_simple_types@PAE@std@@@std@@@2@@Z 00413240 f i EndoScopeMFCDlg.obj
 0001:00012300       ?_Tidy@?$list@PAEV?$allocator@PAE@std@@@std@@QAEXXZ 00413300 f i EndoScopeMFCDlg.obj
 0001:00012320       ??0?$_List_buy@PAEV?$allocator@PAE@std@@@std@@QAE@ABV?$allocator@PAE@1@@Z 00413320 f i EndoScopeMFCDlg.obj
 0001:00012340       ??1?$_List_alloc@$0A@U?$_List_base_types@PAEV?$allocator@PAE@std@@@std@@@std@@QAE@XZ 00413340 f i EndoScopeMFCDlg.obj
 0001:00012360       ??0?$basic_filebuf@DU?$char_traits@D@std@@@std@@QAE@PAU_iobuf@@@Z 00413360 f i EndoScopeMFCDlg.obj
 0001:000123d0       ?open@?$basic_filebuf@DU?$char_traits@D@std@@@std@@QAEPAV12@PBDHH@Z 004133d0 f i EndoScopeMFCDlg.obj
 0001:00012490       ?close@?$basic_filebuf@DU?$char_traits@D@std@@@std@@QAEPAV12@XZ 00413490 f i EndoScopeMFCDlg.obj
 0001:00012500       ?_Init@?$basic_filebuf@DU?$char_traits@D@std@@@std@@IAEXPAU_iobuf@@W4_Initfl@12@@Z 00413500 f i EndoScopeMFCDlg.obj
 0001:000125b0       ?_Endwrite@?$basic_filebuf@DU?$char_traits@D@std@@@std@@IAE_NXZ 004135b0 f i EndoScopeMFCDlg.obj
 0001:000127c0       ?_Initcvt@?$basic_filebuf@DU?$char_traits@D@std@@@std@@IAEXPBV?$codecvt@DDH@2@@Z 004137c0 f i EndoScopeMFCDlg.obj
 0001:00012800       ?_Reset_back@?$basic_filebuf@DU?$char_traits@D@std@@@std@@AAEXXZ 00413800 f i EndoScopeMFCDlg.obj
 0001:00012840       ?_Set_back@?$basic_filebuf@DU?$char_traits@D@std@@@std@@AAEXXZ 00413840 f i EndoScopeMFCDlg.obj
 0001:000128a0       ??D?$_List_iterator@V?$_List_val@U?$_List_simple_types@PAE@std@@@std@@@std@@QBEAAPAEXZ 004138a0 f i EndoScopeMFCDlg.obj
 0001:000128c0       ?_Make_iter@?$list@PAEV?$allocator@PAE@std@@@std@@QBE?AV?$_List_iterator@V?$_List_val@U?$_List_simple_types@PAE@std@@@std@@@2@V?$_List_const_iterator@V?$_List_val@U?$_List_simple_types@PAE@std@@@std@@@2@@Z 004138c0 f i EndoScopeMFCDlg.obj
 0001:000128e0       ??0?$_List_alloc@$0A@U?$_List_base_types@PAEV?$allocator@PAE@std@@@std@@@std@@QAE@ABV?$allocator@PAE@1@@Z 004138e0 f i EndoScopeMFCDlg.obj
 0001:00012910       ?_Freeheadnode@?$_List_alloc@$0A@U?$_List_base_types@PAEV?$allocator@PAE@std@@@std@@@std@@QAEXPAU?$_List_node@PAEPAX@2@@Z 00413910 f i EndoScopeMFCDlg.obj
 0001:00012990       ??E?$_List_const_iterator@V?$_List_val@U?$_List_simple_types@PAE@std@@@std@@@std@@QAE?AV01@H@Z 00413990 f i EndoScopeMFCDlg.obj
 0001:000129e0       ?_Buyheadnode@?$_List_alloc@$0A@U?$_List_base_types@PAEV?$allocator@PAE@std@@@std@@@std@@QAEPAU?$_List_node@PAEPAX@2@XZ 004139e0 f i EndoScopeMFCDlg.obj
 0001:00012a00       ??E?$_List_const_iterator@V?$_List_val@U?$_List_simple_types@PAE@std@@@std@@@std@@QAEAAV01@XZ 00413a00 f i EndoScopeMFCDlg.obj
 0001:00012a30       ?_Buynode0@?$_List_alloc@$0A@U?$_List_base_types@PAEV?$allocator@PAE@std@@@std@@@std@@QAEPAU?$_List_node@PAEPAX@2@PAU32@0@Z 00413a30 f i EndoScopeMFCDlg.obj
 0001:00012b50       ?allocate@?$_Wrap_alloc@V?$allocator@U?$_List_node@PAEPAX@std@@@std@@@std@@QAEPAU?$_List_node@PAEPAX@2@I@Z 00413b50 f i EndoScopeMFCDlg.obj
 0001:00012b70       ?allocate@?$allocator@U?$_List_node@PAEPAX@std@@@std@@QAEPAU?$_List_node@PAEPAX@2@I@Z 00413b70 f i EndoScopeMFCDlg.obj
 0001:00012b90       ??0?$Scalar_@N@cv@@QAE@N@Z 00413b90 f i EndoScopeMFCDlg.obj
 0001:00012c10       ??0?$Rect_@H@cv@@QAE@HHHH@Z 00413c10 f i EndoScopeMFCDlg.obj
 0001:00012c50       ??$?6U?$char_traits@D@std@@@std@@YAAAV?$basic_ostream@DU?$char_traits@D@std@@@0@AAV10@PBD@Z 00413c50 f i EndoScopeMFCDlg.obj
 0001:00012f90       ??$?BH@CvSize@@QBE?AV?$Size_@H@cv@@XZ 00413f90 f i EndoScopeMFCDlg.obj
 0001:00012fd0       ??$strcpy_s@$0BAE@@@YAHAAY0BAE@DPBD@Z 00413fd0 f i EndoScopeMFCDlg.obj
 0001:00012ff0       ??$fill@PANH@std@@YAXPAN0ABH@Z 00413ff0 f i EndoScopeMFCDlg.obj
 0001:00013020       ??$at@V?$Vec@E$02@cv@@@Mat@cv@@QAEAAV?$Vec@E$02@1@HH@Z 00414020 f i EndoScopeMFCDlg.obj
 0001:00013060       ??A?$Vec@E$02@cv@@QAEAAEH@Z 00414060 f i EndoScopeMFCDlg.obj
 0001:00013080       ??$getline@DU?$char_traits@D@std@@V?$allocator@D@2@@std@@YAAAV?$basic_istream@DU?$char_traits@D@std@@@0@AAV10@AAV?$basic_string@DU?$char_traits@D@std@@V?$allocator@D@2@@0@@Z 00414080 f i EndoScopeMFCDlg.obj
 0001:000130c0       ??$_Insert@ABQAE@?$list@PAEV?$allocator@PAE@std@@@std@@QAEXV?$_List_unchecked_const_iterator@V?$_List_val@U?$_List_simple_types@PAE@std@@@std@@U_Iterator_base0@2@@1@ABQAE@Z 004140c0 f i EndoScopeMFCDlg.obj
 0001:00013140       ??$use_facet@V?$codecvt@DDH@std@@@std@@YAABV?$codecvt@DDH@0@ABVlocale@0@@Z 00414140 f i EndoScopeMFCDlg.obj
 0001:00013250       ??$_Allocate@U?$_List_node@PAEPAX@std@@@std@@YAPAU?$_List_node@PAEPAX@0@IPAU10@@Z 00414250 f i EndoScopeMFCDlg.obj
 0001:000132a0       ?_Incsize@?$list@PAEV?$allocator@PAE@std@@@std@@QAEXI@Z 004142a0 f i EndoScopeMFCDlg.obj
 0001:000132e0       ?max_size@?$list@PAEV?$allocator@PAE@std@@@std@@QBEIXZ 004142e0 f i EndoScopeMFCDlg.obj
 0001:00013300       ?max_size@?$_Wrap_alloc@V?$allocator@U?$_List_node@PAEPAX@std@@@std@@@std@@QBEIXZ 00414300 f i EndoScopeMFCDlg.obj
 0001:00013320       ?max_size@?$allocator_traits@V?$allocator@U?$_List_node@PAEPAX@std@@@std@@@std@@SAIABV?$allocator@U?$_List_node@PAEPAX@std@@@2@@Z 00414320 f i EndoScopeMFCDlg.obj
 0001:00013330       ?max_size@?$allocator@U?$_List_node@PAEPAX@std@@@std@@QBEIXZ 00414330 f i EndoScopeMFCDlg.obj
 0001:00013340       ??0?$Vec@N$03@cv@@QAE@XZ   00414340 f i EndoScopeMFCDlg.obj
 0001:00013360       ??$_Fill@PANH@std@@YAXPAN0ABH@Z 00414360 f i EndoScopeMFCDlg.obj
 0001:00013390       ??$getline@DU?$char_traits@D@std@@V?$allocator@D@2@@std@@YAAAV?$basic_istream@DU?$char_traits@D@std@@@0@$$QAV10@AAV?$basic_string@DU?$char_traits@D@std@@V?$allocator@D@2@@0@D@Z 00414390 f i EndoScopeMFCDlg.obj
 0001:000135a0       ??$_Buynode@ABQAE@?$_List_buy@PAEV?$allocator@PAE@std@@@std@@QAEPAU?$_List_node@PAEPAX@1@PAU21@0ABQAE@Z 004145a0 f i EndoScopeMFCDlg.obj
 0001:00013680       ??0?$Matx@N$03$00@cv@@QAE@XZ 00414680 f i EndoScopeMFCDlg.obj
 0001:000136bd       ?_Add_vtordisp2@?$basic_ostream@DU?$char_traits@D@std@@@std@@$4PPPPPPPM@FI@AEXXZ 004146bd f i EndoScopeMFCDlg.obj
 0001:000136c9       ?_Add_vtordisp1@?$basic_istream@DU?$char_traits@D@std@@@std@@$4PPPPPPPM@FI@AEXXZ 004146c9 f i EndoScopeMFCDlg.obj
 0001:000136d5       ??_E?$basic_ifstream@DU?$char_traits@D@std@@@std@@$4PPPPPPPM@A@AEPAXI@Z 004146d5 f i EndoScopeMFCDlg.obj
 0001:000136dd       ??_E?$basic_ofstream@DU?$char_traits@D@std@@@std@@$4PPPPPPPM@A@AEPAXI@Z 004146dd f i EndoScopeMFCDlg.obj
 0001:000136f0       ??Y?$basic_string@DU?$char_traits@D@std@@V?$allocator@D@2@@std@@QAEAAV01@D@Z 004146f0 f i EndoScopeMFCDlg.obj
 0001:00013710       ??Bsentry@?$basic_istream@DU?$char_traits@D@std@@@std@@QBEPQ?$_Bool_struct@V?$basic_istream@DU?$char_traits@D@std@@@std@@@2@HXZ 00414710 f i EndoScopeMFCDlg.obj
 0001:00013710       ??Bsentry@?$basic_ostream@DU?$char_traits@D@std@@@std@@QBEPQ?$_Bool_struct@V?$basic_ostream@DU?$char_traits@D@std@@@std@@@2@HXZ 00414710 f i EndoScopeMFCDlg.obj
 0001:00013740       ??1sentry@?$basic_istream@DU?$char_traits@D@std@@@std@@QAE@XZ 00414740 f i EndoScopeMFCDlg.obj
 0001:00013760       ??0_Sentry_base@?$basic_istream@DU?$char_traits@D@std@@@std@@QAE@AAV12@@Z 00414760 f i EndoScopeMFCDlg.obj
 0001:00013760       ??0_Sentry_base@?$basic_ostream@DU?$char_traits@D@std@@@std@@QAE@AAV12@@Z 00414760 f i EndoScopeMFCDlg.obj
 0001:000137c0       ??1_Sentry_base@?$basic_istream@DU?$char_traits@D@std@@@std@@QAE@XZ 004147c0 f i EndoScopeMFCDlg.obj
 0001:000137c0       ??1_Sentry_base@?$basic_ostream@DU?$char_traits@D@std@@@std@@QAE@XZ 004147c0 f i EndoScopeMFCDlg.obj
 0001:00013820       ??0sentry@?$basic_istream@DU?$char_traits@D@std@@@std@@QAE@AAV12@_N@Z 00414820 f i EndoScopeMFCDlg.obj
 0001:00013890       ??0?$fpos@H@std@@QAE@_J@Z  00414890 f i EndoScopeMFCDlg.obj
 0001:000138d0       ??$_Fgetc@D@std@@YA_NAADPAU_iobuf@@@Z 004148d0 f i EndoScopeMFCDlg.obj
 0001:00013900       ??$_Ungetc@D@std@@YA_NABDPAU_iobuf@@@Z 00414900 f i EndoScopeMFCDlg.obj
 0001:00013940       ?append@?$basic_string@DU?$char_traits@D@std@@V?$allocator@D@2@@std@@QAEAAV12@ID@Z 00414940 f i EndoScopeMFCDlg.obj
 0001:000139c0       ?assign@?$char_traits@D@std@@SAPADPADID@Z 004149c0 f i EndoScopeMFCDlg.obj
 0001:000139e0       ?_Chassign@?$basic_string@DU?$char_traits@D@std@@V?$allocator@D@2@@std@@QAEXIID@Z 004149e0 f i EndoScopeMFCDlg.obj
 0001:00013a30       ?assign@?$basic_string@DU?$char_traits@D@std@@V?$allocator@D@2@@std@@QAEAAV12@ID@Z 00414a30 f i EndoScopeMFCDlg.obj
 0001:00013a90       ??0?$basic_string@DU?$char_traits@D@std@@V?$allocator@D@2@@std@@QAE@ID@Z 00414a90 f i EndoScopeMFCDlg.obj
 0001:00013ad0       ??$_Fputc@D@std@@YA_NDPAU_iobuf@@@Z 00414ad0 f i EndoScopeMFCDlg.obj
 0001:00013b10       ?to_char_type@?$char_traits@D@std@@SADABH@Z 00414b10 f i EndoScopeMFCDlg.obj
 0001:00013b20       ?not_eof@?$char_traits@D@std@@SAHABH@Z 00414b20 f i EndoScopeMFCDlg.obj
 0001:00013b70       ?_Getfacet@locale@std@@QBEPBVfacet@12@I@Z 00414b70 f i EndoScopeMFCDlg.obj
 0001:00013c00       ??1locale@std@@QAE@XZ      00414c00 f i EndoScopeMFCDlg.obj
 0001:00013c50       ?begin@?$basic_string@DU?$char_traits@D@std@@V?$allocator@D@2@@std@@QAE?AV?$_String_iterator@V?$_String_val@U?$_Simple_types@D@std@@@std@@@2@XZ 00414c50 f i EndoScopeMFCDlg.obj
 0001:00013c80       ??0?$_String_const_iterator@V?$_String_val@U?$_Simple_types@D@std@@@std@@@std@@QAE@PBDPBU_Container_base0@1@@Z 00414c80 f i EndoScopeMFCDlg.obj
 0001:00013cb0       ??0?$_String_iterator@V?$_String_val@U?$_Simple_types@D@std@@@std@@@std@@QAE@PADPBU_Container_base0@1@@Z 00414cb0 f i EndoScopeMFCDlg.obj
 0001:00013cd0       ??0?$basic_string@DU?$char_traits@D@std@@V?$allocator@D@2@@std@@QAE@XZ 00414cd0 f i EndoScopeMFCDlg.obj
 0001:00013d00       ?eq_int_type@?$char_traits@D@std@@SA_NABH0@Z 00414d00 f i EndoScopeMFCDlg.obj
 0001:00013d30       ?to_int_type@?$char_traits@D@std@@SAHABD@Z 00414d30 f i EndoScopeMFCDlg.obj
 0001:00013d40       ?eof@?$char_traits@D@std@@SAHXZ 00414d40 f i EndoScopeMFCDlg.obj
 0001:00013d50       ??0sentry@?$basic_ostream@DU?$char_traits@D@std@@@std@@QAE@AAV12@@Z 00414d50 f i EndoScopeMFCDlg.obj
 0001:00013e10       ??1sentry@?$basic_ostream@DU?$char_traits@D@std@@@std@@QAE@XZ 00414e10 f i EndoScopeMFCDlg.obj
 0001:00013e40       ?OnTimer@CWnd@@IAEXI@Z     00414e40 f i EndoScopeMFCDlg.obj
 0001:00013e60       ?KillTimer@CWnd@@QAEHI@Z   00414e60 f i EndoScopeMFCDlg.obj
 0001:00013e80       ?GetYear@CTime@ATL@@QBEHXZ 00414e80 f i EndoScopeMFCDlg.obj
 0001:00013ee0       ?GetMonth@CTime@ATL@@QBEHXZ 00414ee0 f i EndoScopeMFCDlg.obj
 0001:00013f30       ?GetDay@CTime@ATL@@QBEHXZ  00414f30 f i EndoScopeMFCDlg.obj
 0001:00013f80       ?GetHour@CTime@ATL@@QBEHXZ 00414f80 f i EndoScopeMFCDlg.obj
 0001:00013fd0       ?GetMinute@CTime@ATL@@QBEHXZ 00414fd0 f i EndoScopeMFCDlg.obj
 0001:00014020       ?GetTickCount@CTime@ATL@@SG?AV12@XZ 00415020 f i EndoScopeMFCDlg.obj
 0001:00014040       ??0CTime@ATL@@QAE@XZ       00415040 f i EndoScopeMFCDlg.obj
 0001:00014060       ?CreatePolygonRgn@CRgn@@QAEHPAUtagPOINT@@HH@Z 00415060 f i EndoScopeMFCDlg.obj
 0001:00014090       ??_H@YGXPAXIHP6EPAX0@Z@Z   00415090 f i EndoScopeMFCDlg.obj
 0001:000140c0       ??BCRgn@@QBEPAUHRGN__@@XZ  004150c0 f i EndoScopeMFCDlg.obj
 0001:000140c0       ?GetSafeHdc@CDC@@QBEPAUHDC__@@XZ 004150c0 f i EndoScopeMFCDlg.obj
 0001:000140c0       ?GetSafeHandle@CGdiObject@@QBEPAXXZ 004150c0 f i EndoScopeMFCDlg.obj
 0001:000140f0       ?CreateRoundRectRgn@CRgn@@QAEHHHHHHH@Z 004150f0 f i EndoScopeMFCDlg.obj
 0001:00014130       ??1CRgn@@UAE@XZ            00415130 f i EndoScopeMFCDlg.obj
 0001:00014150       ??_GCRgn@@UAEPAXI@Z        00415150 f i EndoScopeMFCDlg.obj
 0001:00014150       ??_ECRgn@@UAEPAXI@Z        00415150 f i * CIL library *:* CIL module *
 0001:00014180       ??0CRgn@@QAE@XZ            00415180 f i EndoScopeMFCDlg.obj
 0001:000141a0       ?SetFont@CWnd@@QAEXPAVCFont@@H@Z 004151a0 f i EndoScopeMFCDlg.obj
 0001:000141d0       ?CreateFontA@CFont@@QAEHHHHHHEEEEEEEEPBD@Z 004151d0 f i EndoScopeMFCDlg.obj
 0001:00014230       ??1CFont@@UAE@XZ           00415230 f i EndoScopeMFCDlg.obj
 0001:00014250       ??0CGdiObject@@QAE@XZ      00415250 f i EndoScopeMFCDlg.obj
 0001:00014280       ??_ECFont@@UAEPAXI@Z       00415280 f i * CIL library *:* CIL module *
 0001:00014280       ??_GCFont@@UAEPAXI@Z       00415280 f i EndoScopeMFCDlg.obj
 0001:000142b0       ??0CFont@@QAE@XZ           004152b0 f i EndoScopeMFCDlg.obj
 0001:000142d0       ?GetStatus@COleDateTime@ATL@@QBE?AW4DateTimeStatus@12@XZ 004152d0 f i EndoScopeMFCDlg.obj
 0001:000142f0       ?Format@COleDateTime@ATL@@QBE?AV?$CStringT@DV?$StrTraitMFC_DLL@DV?$ChTraitsCRT@D@ATL@@@@@2@PBD@Z 004152f0 f i EndoScopeMFCDlg.obj
 0001:00014590       ??0CTime@ATL@@QAE@_J@Z     00415590 f i EndoScopeMFCDlg.obj
 0001:000145b0       ?GetLocalTm@CTime@ATL@@QBEPAUtm@@PAU3@@Z 004155b0 f i EndoScopeMFCDlg.obj
 0001:00014650       ?GetAsSystemTime@CTime@ATL@@QBE_NAAU_SYSTEMTIME@@@Z 00415650 f i EndoScopeMFCDlg.obj
 0001:00014700       ?AtlConvertSystemTimeToVariantTime@ATL@@YAHABU_SYSTEMTIME@@PAN@Z 00415700 f i EndoScopeMFCDlg.obj
 0001:00014830       ?ConvertSystemTimeToVariantTime@COleDateTime@ATL@@IAEHABU_SYSTEMTIME@@@Z 00415830 f i EndoScopeMFCDlg.obj
 0001:00014850       ??4COleDateTime@ATL@@QAEAAV01@AB_J@Z 00415850 f i EndoScopeMFCDlg.obj
 0001:000148d0       ??0COleDateTime@ATL@@QAE@_J@Z 004158d0 f i EndoScopeMFCDlg.obj
 0001:00014910       ?GetTickCount@COleDateTime@ATL@@SG?AV12@XZ 00415910 f i EndoScopeMFCDlg.obj
 0001:00014930       ?GetDesktopWindow@CWnd@@SGPAV1@XZ 00415930 f i EndoScopeMFCDlg.obj
 0001:00014950       ?GetSafeHwnd@CWnd@@QBEPAUHWND__@@XZ 00415950 f i EndoScopeMFCDlg.obj
 0001:00014980       ??0CRect@@QAE@PBUtagRECT@@@Z 00415980 f i EndoScopeMFCDlg.obj
 0001:000149a0       ?DrawIcon@CDC@@QAEHHHPAUHICON__@@@Z 004159a0 f i EndoScopeMFCDlg.obj
 0001:000149d0       ?Height@CRect@@QBEHXZ      004159d0 f i EndoScopeMFCDlg.obj
 0001:000149f0       ?Width@CRect@@QBEHXZ       004159f0 f i EndoScopeMFCDlg.obj
 0001:00014a10       ?GetClientRect@CWnd@@QBEXPAUtagRECT@@@Z 00415a10 f i EndoScopeMFCDlg.obj
 0001:00014a30       ?SendMessageA@CWnd@@QBEJIIJ@Z 00415a30 f i EndoScopeMFCDlg.obj
 0001:00014a60       ?IsIconic@CWnd@@QBEHXZ     00415a60 f i EndoScopeMFCDlg.obj
 0001:00014a80       ?OnSysCommand@CWnd@@IAEXIJ@Z 00415a80 f i EndoScopeMFCDlg.obj
 0001:00014aa0       ?SetTimer@CWnd@@QAEIIIP6GXPAUHWND__@@IIK@Z@Z 00415aa0 f i EndoScopeMFCDlg.obj
 0001:00014ad0       ?SetIcon@CWnd@@QAEPAUHICON__@@PAU2@H@Z 00415ad0 f i EndoScopeMFCDlg.obj
 0001:00014b00       ?AppendMenuA@CMenu@@QAEHIIPBD@Z 00415b00 f i EndoScopeMFCDlg.obj
 0001:00014b30       ?GetSystemMenu@CWnd@@QBEPAVCMenu@@H@Z 00415b30 f i EndoScopeMFCDlg.obj
 0001:00014b60       ?AfxGetApp@@YGPAVCWinApp@@XZ 00415b60 f i EndoScopeMFCDlg.obj
 0001:00014b70       ?LoadIconA@CWinApp@@QBEPAUHICON__@@I@Z 00415b70 f i EndoScopeMFCDlg.obj
 0001:00014ba0       ??0CRect@@QAE@XZ           00415ba0 f i EndoScopeMFCDlg.obj
 0001:00014be0       ??_ECStatic@@UAEPAXI@Z     00415be0 f i * CIL library *:* CIL module *
 0001:00014be0       ??_GCStatic@@UAEPAXI@Z     00415be0 f i EndoScopeMFCDlg.obj
 0001:00014c10       ??0CStatic@@QAE@XZ         00415c10 f i EndoScopeMFCDlg.obj
 0001:00014c30       ?OnClose@CWnd@@IAEXXZ      00415c30 f i EndoScopeMFCDlg.obj
 0001:00014c50       ?c_str@?$basic_string@DU?$char_traits@D@std@@V?$allocator@D@2@@std@@QBEPBDXZ 00415c50 f i EndoScopeMFCDlg.obj
 0001:00014c70       ?InitQueue@@YAXXZ          00415c70 f   frameQueue.obj
 0001:00014d10       ?resetQueue@@YAXXZ         00415d10 f   frameQueue.obj
 0001:00014d80       ?WriteQueue@@YAXPAEH@Z     00415d80 f   frameQueue.obj
 0001:00014f10       ?ReadQueue@@YAHPAEPAH@Z    00415f10 f   frameQueue.obj
 0001:00015050       ??0CLightComIO@@QAE@XZ     00416050 f   LightComIO.obj
 0001:000150a0       ??_GCLightComIO@@UAEPAXI@Z 004160a0 f i LightComIO.obj
 0001:000150a0       ??_ECLightComIO@@UAEPAXI@Z 004160a0 f i * CIL library *:* CIL module *
 0001:000150d0       ??1CLightComIO@@UAE@XZ     004160d0 f   LightComIO.obj
 0001:000150f0       ?Release@CLightComIO@@QAEXXZ 004160f0 f   LightComIO.obj
 0001:000150f0       ?Release@CVideoComIO@@QAEXXZ 004160f0 f   VideoComIO.obj
 0001:00015140       ?SendData@CLightComIO@@QAEHPAEH@Z 00416140 f   LightComIO.obj
 0001:00015210       ?GetRuntimeClass@Login@@UBEPAUCRuntimeClass@@XZ 00416210 f   Login.obj
 0001:00015220       ??0Login@@QAE@PAVCWnd@@@Z  00416220 f   Login.obj
 0001:000153f0       ??_ELogin@@UAEPAXI@Z       004163f0 f i * CIL library *:* CIL module *
 0001:000153f0       ??_GLogin@@UAEPAXI@Z       004163f0 f i Login.obj
 0001:00015420       ??1Login@@UAE@XZ           00416420 f   Login.obj
 0001:000154d0       ?DoDataExchange@Login@@MAEXPAVCDataExchange@@@Z 004164d0 f   Login.obj
 0001:00015520       ?GetMessageMap@Login@@MBEPBUAFX_MSGMAP@@XZ 00416520 f   Login.obj
 0001:00015530       ?GetThisMessageMap@Login@@KGPBUAFX_MSGMAP@@XZ 00416530 f   Login.obj
 0001:00015540       ?OnBnClickedBtnSetpsw@Login@@QAEXXZ 00416540 f   Login.obj
 0001:000155f0       ?OnBnClickedOk@Login@@QAEXXZ 004165f0 f   Login.obj
 0001:00015870       ?OnInitDialog@Login@@UAEHXZ 00416870 f   Login.obj
 0001:00015930       ??8ATL@@YA_NABV?$CStringT@DV?$StrTraitMFC_DLL@DV?$ChTraitsCRT@D@ATL@@@@@0@PBD@Z 00416930 f i Login.obj
 0001:00015960       ??_GCEdit@@UAEPAXI@Z       00416960 f i Login.obj
 0001:00015960       ??_ECEdit@@UAEPAXI@Z       00416960 f i * CIL library *:* CIL module *
 0001:00015990       ??0CEdit@@QAE@XZ           00416990 f i Login.obj
 0001:000159b0       ?InitPackQueue@@YAXXZ      004169b0 f   packQueue.obj
 0001:00015a30       ?WritePackQueue@@YAXPAEH@Z 00416a30 f   packQueue.obj
 0001:00015b10       ?ReadPackQueue@@YAHPAEPAH@Z 00416b10 f   packQueue.obj
 0001:00015c00       ??0_System_error_category@std@@QAE@XZ 00416c00 f i pch.obj
 0001:00015c20       ?name@_System_error_category@std@@UBEPBDXZ 00416c20 f i pch.obj
 0001:00015c30       ?message@_System_error_category@std@@UBE?AV?$basic_string@DU?$char_traits@D@std@@V?$allocator@D@2@@2@H@Z 00416c30 f i pch.obj
 0001:00015c90       ?default_error_condition@_System_error_category@std@@UBE?AVerror_condition@2@H@Z 00416c90 f i pch.obj
 0001:00015ce0       ?generic_category@std@@YAABVerror_category@1@XZ 00416ce0 f i pch.obj
 0001:00015cf0       ?system_category@std@@YAABVerror_category@1@XZ 00416cf0 f i pch.obj
 0001:00015d00       ?SetDataHandler@CVideoComIO@@QAEXPAVCComDataHandler@@@Z 00416d00 f i PLC.obj
 0001:00015d00       ?SetDataHandler@CLightComIO@@QAEXPAVCComDataHandler@@@Z 00416d00 f i PLC.obj
 0001:00015d20       ??0CPLC@@QAE@XZ            00416d20 f   PLC.obj
 0001:00015df0       ??_ECPLC@@UAEPAXI@Z        00416df0 f i * CIL library *:* CIL module *
 0001:00015df0       ??_GCPLC@@UAEPAXI@Z        00416df0 f i PLC.obj
 0001:00015e20       ??0CComDataHandler@@QAE@XZ 00416e20 f i PLC.obj
 0001:00015e40       ??1CPLC@@UAE@XZ            00416e40 f   PLC.obj
 0001:00015ed0       ?GetShowDlgPointer@CPLC@@QAEXPAVCWnd@@@Z 00416ed0 f   PLC.obj
 0001:00015ef0       ?VideoInitialize@CPLC@@QAE_NV?$CStringT@DV?$StrTraitMFC_DLL@DV?$ChTraitsCRT@D@ATL@@@@@ATL@@H@Z 00416ef0 f   PLC.obj
 0001:00015f70       ?ProcessCardInitialize@CPLC@@QAE_NV?$CStringT@DV?$StrTraitMFC_DLL@DV?$ChTraitsCRT@D@ATL@@@@@ATL@@H@Z 00416f70 f   PLC.obj
 0001:00016000       ?ProcessData@CPLC@@UAEXPAEH@Z 00417000 f   PLC.obj
 0001:00016030       ??0CProcessCard@@QAE@XZ    00417030 f   ProcessCard.obj
 0001:00016070       ??1CProcessCard@@QAE@XZ    00417070 f   ProcessCard.obj
 0001:00016090       ?Initialize@CProcessCard@@QAE_NV?$CStringT@DV?$StrTraitMFC_DLL@DV?$ChTraitsCRT@D@ATL@@@@@ATL@@H@Z 00417090 f   ProcessCard.obj
 0001:000162d0       ?Release@CProcessCard@@QAEXXZ 004172d0 f   ProcessCard.obj
 0001:00016320       ?SendData@CProcessCard@@QAEHPAEH@Z 00417320 f   ProcessCard.obj
 0001:000163f0       ?RecvHandler@CProcessCard@@SAIPAX@Z 004173f0 f   ProcessCard.obj
 0001:00016410       ?GetBytesInCOM@CProcessCard@@AAEIXZ 00417410 f   ProcessCard.obj
 0001:00016470       ?OnRecv@CProcessCard@@QAEIPAX@Z 00417470 f   ProcessCard.obj
 0001:00016510       ??0CVideoComIO@@QAE@XZ     00417510 f   VideoComIO.obj
 0001:00016560       ??_GCVideoComIO@@UAEPAXI@Z 00417560 f i VideoComIO.obj
 0001:00016560       ??_ECVideoComIO@@UAEPAXI@Z 00417560 f i * CIL library *:* CIL module *
 0001:00016590       ??1CVideoComIO@@UAE@XZ     00417590 f   VideoComIO.obj
 0001:000165b0       ?Initialize@CVideoComIO@@QAE_NV?$CStringT@DV?$StrTraitMFC_DLL@DV?$ChTraitsCRT@D@ATL@@@@@ATL@@H@Z 004175b0 f   VideoComIO.obj
 0001:000167f0       ?SendData@CVideoComIO@@QAEHPAEH@Z 004177f0 f   VideoComIO.obj
 0001:00016940       ?RecvHandler@CVideoComIO@@SAIPAX@Z 00417940 f   VideoComIO.obj
 0001:00016960       ?OnRecv@CVideoComIO@@QAEIPAX@Z 00417960 f   VideoComIO.obj
 0001:00016c30       ?InitYUVQueue@@YAXXZ       00417c30 f   yuvQueue.obj
 0001:00016cd0       ?WriteYUVQueue@@YAXPAEH@Z  00417cd0 f   yuvQueue.obj
 0001:00016e60       ?ReadYUVQueue@@YAHPAEPAH@Z 00417e60 f   yuvQueue.obj
 0001:00016f92       ??3@YAXPAX@Z               00417f92 f   mfc110:mfc110.dll
 0001:00016f98       ??2@YAPAXI@Z               00417f98 f   mfc110:mfc110.dll
 0001:00016f9e       ?GetRuntimeClass@CGdiObject@@UBEPAUCRuntimeClass@@XZ 00417f9e f   mfc110:mfc110.dll
 0001:00016fa4       ?GetRuntimeClass@CBrush@@UBEPAUCRuntimeClass@@XZ 00417fa4 f   mfc110:mfc110.dll
 0001:00016faa       ?GetThisMessageMap@CDialogEx@@KGPBUAFX_MSGMAP@@XZ 00417faa f   mfc110:mfc110.dll
 0001:00016fb0       ?OnOK@CDialog@@MAEXXZ      00417fb0 f   mfc110:mfc110.dll
 0001:00016fb6       ?OnCmdMsg@CDialog@@UAEHIHPAXPAUAFX_CMDHANDLERINFO@@@Z 00417fb6 f   mfc110:mfc110.dll
 0001:00016fbc       ?OnFinalRelease@CWnd@@UAEXXZ 00417fbc f   mfc110:mfc110.dll
 0001:00016fc2       ?IsInvokeAllowed@CCmdTarget@@UAEHJ@Z 00417fc2 f   mfc110:mfc110.dll
 0001:00016fc8       ?GetDispatchIID@CCmdTarget@@UAEHPAU_GUID@@@Z 00417fc8 f   mfc110:mfc110.dll
 0001:00016fce       ?GetTypeInfoCount@CCmdTarget@@UAEIXZ 00417fce f   mfc110:mfc110.dll
 0001:00016fd4       ?GetTypeLibCache@CCmdTarget@@UAEPAVCTypeLibCache@@XZ 00417fd4 f   mfc110:mfc110.dll
 0001:00016fda       ?GetTypeLib@CCmdTarget@@UAEJKPAPAUITypeLib@@@Z 00417fda f   mfc110:mfc110.dll
 0001:00016fe0       ?GetCommandMap@CCmdTarget@@MBEPBUAFX_OLECMDMAP@@XZ 00417fe0 f   mfc110:mfc110.dll
 0001:00016fe6       ?GetDispatchMap@CCmdTarget@@MBEPBUAFX_DISPMAP@@XZ 00417fe6 f   mfc110:mfc110.dll
 0001:00016fec       ?GetConnectionMap@CCmdTarget@@MBEPBUAFX_CONNECTIONMAP@@XZ 00417fec f   mfc110:mfc110.dll
 0001:00016ff2       ?GetInterfaceMap@CWnd@@MBEPBUAFX_INTERFACEMAP@@XZ 00417ff2 f   mfc110:mfc110.dll
 0001:00016ff8       ?GetEventSinkMap@CCmdTarget@@MBEPBUAFX_EVENTSINKMAP@@XZ 00417ff8 f   mfc110:mfc110.dll
 0001:00016ffe       ?OnCreateAggregates@CCmdTarget@@UAEHXZ 00417ffe f   mfc110:mfc110.dll
 0001:00017004       ?GetInterfaceHook@CCmdTarget@@UAEPAUIUnknown@@PBX@Z 00418004 f   mfc110:mfc110.dll
 0001:0001700a       ?GetExtraConnectionPoints@CCmdTarget@@MAEHPAVCPtrArray@@@Z 0041800a f   mfc110:mfc110.dll
 0001:00017010       ?GetConnectionHook@CCmdTarget@@MAEPAUIConnectionPoint@@ABU_GUID@@@Z 00418010 f   mfc110:mfc110.dll
 0001:00017016       ?PreSubclassWindow@CWnd@@UAEXXZ 00418016 f   mfc110:mfc110.dll
 0001:0001701c       ?Create@CWnd@@UAEHPBD0KABUtagRECT@@PAV1@IPAUCCreateContext@@@Z 0041801c f   mfc110:mfc110.dll
 0001:00017022       ?CreateEx@CWnd@@UAEHKPBD0KABUtagRECT@@PAV1@IPAX@Z 00418022 f   mfc110:mfc110.dll
 0001:00017028       ?CreateEx@CWnd@@UAEHKPBD0KHHHHPAUHWND__@@PAUHMENU__@@PAX@Z 00418028 f   mfc110:mfc110.dll
 0001:0001702e       ?DestroyWindow@CWnd@@UAEHXZ 0041802e f   mfc110:mfc110.dll
 0001:00017034       ?PreCreateWindow@CWnd@@UAEHAAUtagCREATESTRUCTA@@@Z 00418034 f   mfc110:mfc110.dll
 0001:0001703a       ?CalcWindowRect@CWnd@@UAEXPAUtagRECT@@I@Z 0041803a f   mfc110:mfc110.dll
 0001:00017040       ?GetMenu@CWnd@@UBEPAVCMenu@@XZ 00418040 f   mfc110:mfc110.dll
 0001:00017046       ?SetMenu@CWnd@@UAEHPAVCMenu@@@Z 00418046 f   mfc110:mfc110.dll
 0001:0001704c       ?OnToolHitTest@CWnd@@UBEHVCPoint@@PAUtagTOOLINFOA@@@Z 0041804c f   mfc110:mfc110.dll
 0001:00017052       ?GetScrollBarCtrl@CWnd@@UBEPAVCScrollBar@@H@Z 00418052 f   mfc110:mfc110.dll
 0001:00017058       ?WinHelpA@CWnd@@UAEXKI@Z   00418058 f   mfc110:mfc110.dll
 0001:0001705e       ?HtmlHelpA@CWnd@@UAEXKI@Z  0041805e f   mfc110:mfc110.dll
 0001:00017064       ?WinHelpInternal@CWnd@@UAEXKI@Z 00418064 f   mfc110:mfc110.dll
 0001:0001706a       ?ContinueModal@CWnd@@UAEHXZ 0041806a f   mfc110:mfc110.dll
 0001:00017070       ?EndModalLoop@CWnd@@UAEXH@Z 00418070 f   mfc110:mfc110.dll
 0001:00017076       ?OnDrawIconicThumbnailOrLivePreview@CWnd@@UAEXAAVCDC@@VCRect@@VCSize@@HAAH@Z 00418076 f   mfc110:mfc110.dll
 0001:0001707c       ?EnsureStdObj@CWnd@@UAEJXZ 0041807c f   mfc110:mfc110.dll
 0001:00017082       ?get_accParent@CWnd@@UAEJPAPAUIDispatch@@@Z 00418082 f   mfc110:mfc110.dll
 0001:00017088       ?get_accChildCount@CWnd@@UAEJPAJ@Z 00418088 f   mfc110:mfc110.dll
 0001:0001708e       ?get_accChild@CWnd@@UAEJUtagVARIANT@@PAPAUIDispatch@@@Z 0041808e f   mfc110:mfc110.dll
 0001:00017094       ?get_accName@CWnd@@UAEJUtagVARIANT@@PAPA_W@Z 00418094 f   mfc110:mfc110.dll
 0001:0001709a       ?get_accValue@CWnd@@UAEJUtagVARIANT@@PAPA_W@Z 0041809a f   mfc110:mfc110.dll
 0001:000170a0       ?get_accDescription@CWnd@@UAEJUtagVARIANT@@PAPA_W@Z 004180a0 f   mfc110:mfc110.dll
 0001:000170a6       ?get_accRole@CWnd@@UAEJUtagVARIANT@@PAU2@@Z 004180a6 f   mfc110:mfc110.dll
 0001:000170ac       ?get_accState@CWnd@@UAEJUtagVARIANT@@PAU2@@Z 004180ac f   mfc110:mfc110.dll
 0001:000170b2       ?get_accHelp@CWnd@@UAEJUtagVARIANT@@PAPA_W@Z 004180b2 f   mfc110:mfc110.dll
 0001:000170b8       ?get_accHelpTopic@CWnd@@UAEJPAPA_WUtagVARIANT@@PAJ@Z 004180b8 f   mfc110:mfc110.dll
 0001:000170be       ?get_accKeyboardShortcut@CWnd@@UAEJUtagVARIANT@@PAPA_W@Z 004180be f   mfc110:mfc110.dll
 0001:000170c4       ?get_accFocus@CWnd@@UAEJPAUtagVARIANT@@@Z 004180c4 f   mfc110:mfc110.dll
 0001:000170ca       ?get_accSelection@CWnd@@UAEJPAUtagVARIANT@@@Z 004180ca f   mfc110:mfc110.dll
 0001:000170d0       ?get_accDefaultAction@CWnd@@UAEJUtagVARIANT@@PAPA_W@Z 004180d0 f   mfc110:mfc110.dll
 0001:000170d6       ?accSelect@CWnd@@UAEJJUtagVARIANT@@@Z 004180d6 f   mfc110:mfc110.dll
 0001:000170dc       ?accLocation@CWnd@@UAEJPAJ000UtagVARIANT@@@Z 004180dc f   mfc110:mfc110.dll
 0001:000170e2       ?accNavigate@CWnd@@UAEJJUtagVARIANT@@PAU2@@Z 004180e2 f   mfc110:mfc110.dll
 0001:000170e8       ?accHitTest@CWnd@@UAEJJJPAUtagVARIANT@@@Z 004180e8 f   mfc110:mfc110.dll
 0001:000170ee       ?accDoDefaultAction@CWnd@@UAEJUtagVARIANT@@@Z 004180ee f   mfc110:mfc110.dll
 0001:000170f4       ?put_accName@CWnd@@UAEJUtagVARIANT@@PA_W@Z 004180f4 f   mfc110:mfc110.dll
 0001:000170fa       ?put_accValue@CWnd@@UAEJUtagVARIANT@@PA_W@Z 004180fa f   mfc110:mfc110.dll
 0001:00017100       ?SetProxy@CWnd@@UAEJPAUIAccessibleProxy@@@Z 00418100 f   mfc110:mfc110.dll
 0001:00017106       ?CreateAccessibleProxy@CWnd@@UAEJIJPAJ@Z 00418106 f   mfc110:mfc110.dll
 0001:0001710c       ?OnCommand@CDialogEx@@MAEHIJ@Z 0041810c f   mfc110:mfc110.dll
 0001:00017112       ?OnNotify@CWnd@@MAEHIJPAJ@Z 00418112 f   mfc110:mfc110.dll
 0001:00017118       ?GetSuperWndProcAddr@CWnd@@MAEPAP6GJPAUHWND__@@IIJ@ZXZ 00418118 f   mfc110:mfc110.dll
 0001:0001711e       ?PreTranslateMessage@CDialogEx@@UAEHPAUtagMSG@@@Z 0041811e f   mfc110:mfc110.dll
 0001:00017124       ?OnAmbientProperty@CWnd@@UAEHPAVCOleControlSite@@JPAUtagVARIANT@@@Z 00418124 f   mfc110:mfc110.dll
 0001:0001712a       ?WindowProc@CWnd@@MAEJIIJ@Z 0041812a f   mfc110:mfc110.dll
 0001:00017130       ?OnWndMsg@CWnd@@MAEHIIJPAJ@Z 00418130 f   mfc110:mfc110.dll
 0001:00017136       ?DefWindowProcA@CWnd@@MAEJIIJ@Z 00418136 f   mfc110:mfc110.dll
 0001:0001713c       ?PostNcDestroy@CWnd@@MAEXXZ 0041813c f   mfc110:mfc110.dll
 0001:00017142       ?OnChildNotify@CWnd@@MAEHIIJPAJ@Z 00418142 f   mfc110:mfc110.dll
 0001:00017148       ?OnTouchInputs@CWnd@@MAEHIPAUtagTOUCHINPUT@@@Z 00418148 f   mfc110:mfc110.dll
 0001:0001714e       ?OnTouchInput@CWnd@@MAEHVCPoint@@HHPAUtagTOUCHINPUT@@@Z 0041814e f   mfc110:mfc110.dll
 0001:00017154       ?GetGestureStatus@CWnd@@MAEKVCPoint@@@Z 00418154 f   mfc110:mfc110.dll
 0001:0001715a       ?OnGestureZoom@CWnd@@MAEHVCPoint@@J@Z 0041815a f   mfc110:mfc110.dll
 0001:00017160       ?OnGesturePan@CWnd@@MAEHVCPoint@@0@Z 00418160 f   mfc110:mfc110.dll
 0001:00017166       ?OnGestureRotate@CWnd@@MAEHVCPoint@@N@Z 00418166 f   mfc110:mfc110.dll
 0001:0001716c       ?OnGestureTwoFingerTap@CWnd@@MAEHVCPoint@@@Z 0041816c f   mfc110:mfc110.dll
 0001:00017172       ?OnGesturePressAndTap@CWnd@@MAEHVCPoint@@J@Z 00418172 f   mfc110:mfc110.dll
 0001:00017178       ?CheckAutoCenter@CDialog@@UAEHXZ 00418178 f   mfc110:mfc110.dll
 0001:0001717e       ?IsFrameWnd@CWnd@@UBEHXZ   0041817e f   mfc110:mfc110.dll
 0001:00017184       ?CreateControlContainer@CWnd@@MAEHPAPAVCOleControlContainer@@@Z 00418184 f   mfc110:mfc110.dll
 0001:0001718a       ?CreateControlSite@CWnd@@MAEHPAVCOleControlContainer@@PAPAVCOleControlSite@@IABU_GUID@@@Z 0041818a f   mfc110:mfc110.dll
 0001:00017190       ?SetOccDialogInfo@CDialog@@MAEHPAU_AFX_OCC_DIALOG_INFO@@@Z 00418190 f   mfc110:mfc110.dll
 0001:00017196       ?GetOccDialogInfo@CDialog@@MAEPAU_AFX_OCC_DIALOG_INFO@@XZ 00418196 f   mfc110:mfc110.dll
 0001:0001719c       ?Create@CDialog@@UAEHPBDPAVCWnd@@@Z 0041819c f   mfc110:mfc110.dll
 0001:000171a2       ?CreateIndirect@CDialog@@UAEHPAXPAVCWnd@@@Z 004181a2 f   mfc110:mfc110.dll
 0001:000171a8       ?CreateIndirect@CDialog@@UAEHPBUDLGTEMPLATE@@PAVCWnd@@PAX@Z 004181a8 f   mfc110:mfc110.dll
 0001:000171ae       ?DoModal@CDialog@@UAEHXZ   004181ae f   mfc110:mfc110.dll
 0001:000171b4       ?OnInitDialog@CDialog@@UAEHXZ 004181b4 f   mfc110:mfc110.dll
 0001:000171ba       ?OnSetFont@CDialog@@UAEXPAVCFont@@@Z 004181ba f   mfc110:mfc110.dll
 0001:000171c0       ?OnCancel@CDialog@@MAEXXZ  004181c0 f   mfc110:mfc110.dll
 0001:000171c6       ?PreInitDialog@CDialog@@MAEXXZ 004181c6 f   mfc110:mfc110.dll
 0001:000171cc       ?GetThisMessageMap@CWnd@@KGPBUAFX_MSGMAP@@XZ 004181cc f   mfc110:mfc110.dll
 0001:000171d2       ?OnCmdMsg@CCmdTarget@@UAEHIHPAXPAUAFX_CMDHANDLERINFO@@@Z 004181d2 f   mfc110:mfc110.dll
 0001:000171d8       ?OnCommand@CWnd@@MAEHIJ@Z  004181d8 f   mfc110:mfc110.dll
 0001:000171de       ?PreTranslateMessage@CWnd@@UAEHPAUtagMSG@@@Z 004181de f   mfc110:mfc110.dll
 0001:000171e4       ?CheckAutoCenter@CWnd@@UAEHXZ 004181e4 f   mfc110:mfc110.dll
 0001:000171ea       ?SetOccDialogInfo@CWnd@@MAEHPAU_AFX_OCC_DIALOG_INFO@@@Z 004181ea f   mfc110:mfc110.dll
 0001:000171f0       ?GetOccDialogInfo@CWnd@@MAEPAU_AFX_OCC_DIALOG_INFO@@XZ 004181f0 f   mfc110:mfc110.dll
 0001:000171f6       ?OnHelp@CWinApp@@IAEXXZ    004181f6 f   mfc110:mfc110.dll
 0001:000171fc       ?GetThisMessageMap@CWinApp@@KGPBUAFX_MSGMAP@@XZ 004181fc f   mfc110:mfc110.dll
 0001:00017202       ?GetRuntimeClass@CWinApp@@UBEPAUCRuntimeClass@@XZ 00418202 f   mfc110:mfc110.dll
 0001:00017208       ?OnFinalRelease@CCmdTarget@@UAEXXZ 00418208 f   mfc110:mfc110.dll
 0001:0001720e       ?GetInterfaceMap@CCmdTarget@@MBEPBUAFX_INTERFACEMAP@@XZ 0041820e f   mfc110:mfc110.dll
 0001:00017214       ?Run@CWinApp@@UAEHXZ       00418214 f   mfc110:mfc110.dll
 0001:0001721a       ?PreTranslateMessage@CWinThread@@UAEHPAUtagMSG@@@Z 0041821a f   mfc110:mfc110.dll
 0001:00017220       ?PumpMessage@CWinThread@@UAEHXZ 00418220 f   mfc110:mfc110.dll
 0001:00017226       ?OnIdle@CWinApp@@UAEHJ@Z   00418226 f   mfc110:mfc110.dll
 0001:0001722c       ?IsIdleMessage@CWinThread@@UAEHPAUtagMSG@@@Z 0041822c f   mfc110:mfc110.dll
 0001:00017232       ?ProcessWndProcException@CWinApp@@UAEJPAVCException@@PBUtagMSG@@@Z 00418232 f   mfc110:mfc110.dll
 0001:00017238       ?ProcessMessageFilter@CWinThread@@UAEHHPAUtagMSG@@@Z 00418238 f   mfc110:mfc110.dll
 0001:0001723e       ?GetMainWnd@CWinThread@@UAEPAVCWnd@@XZ 0041823e f   mfc110:mfc110.dll
 0001:00017244       ?Delete@CWinThread@@UAEXXZ 00418244 f   mfc110:mfc110.dll
 0001:0001724a       ?GetProfileIntA@CWinApp@@UAEIPBD0H@Z 0041824a f   mfc110:mfc110.dll
 0001:00017250       ?WriteProfileInt@CWinApp@@UAEHPBD0H@Z 00418250 f   mfc110:mfc110.dll
 0001:00017256       ?GetProfileStringA@CWinApp@@UAE?AV?$CStringT@DV?$StrTraitMFC_DLL@DV?$ChTraitsCRT@D@ATL@@@@@ATL@@PBD00@Z 00418256 f   mfc110:mfc110.dll
 0001:0001725c       ?WriteProfileStringA@CWinApp@@UAEHPBD00@Z 0041825c f   mfc110:mfc110.dll
 0001:00017262       ?GetProfileBinary@CWinApp@@UAEHPBD0PAPAEPAI@Z 00418262 f   mfc110:mfc110.dll
 0001:00017268       ?WriteProfileBinary@CWinApp@@UAEHPBD0PAEI@Z 00418268 f   mfc110:mfc110.dll
 0001:0001726e       ?InitLibId@CWinApp@@UAEXXZ 0041826e f   mfc110:mfc110.dll
 0001:00017274       ?Register@CWinApp@@UAEHXZ  00418274 f   mfc110:mfc110.dll
 0001:0001727a       ?Unregister@CWinApp@@UAEHXZ 0041827a f   mfc110:mfc110.dll
 0001:00017280       ?OpenDocumentFile@CWinApp@@UAEPAVCDocument@@PBDH@Z 00418280 f   mfc110:mfc110.dll
 0001:00017286       ?OpenDocumentFile@CWinApp@@UAEPAVCDocument@@PBD@Z 00418286 f   mfc110:mfc110.dll
 0001:0001728c       ?AddToRecentFileList@CWinApp@@UAEXPBD@Z 0041828c f   mfc110:mfc110.dll
 0001:00017292       ?InitApplication@CWinApp@@UAEHXZ 00418292 f   mfc110:mfc110.dll
 0001:00017298       ?SaveAllModified@CWinApp@@UAEHXZ 00418298 f   mfc110:mfc110.dll
 0001:0001729e       ?DoMessageBox@CWinApp@@UAEHPBDII@Z 0041829e f   mfc110:mfc110.dll
 0001:000172a4       ?DoWaitCursor@CWinApp@@UAEXH@Z 004182a4 f   mfc110:mfc110.dll
 0001:000172aa       ?OnDDECommand@CWinApp@@UAEHPAD@Z 004182aa f   mfc110:mfc110.dll
 0001:000172b0       ?WinHelpA@CWinApp@@UAEXKI@Z 004182b0 f   mfc110:mfc110.dll
 0001:000172b6       ?HtmlHelpA@CWinApp@@UAEXKI@Z 004182b6 f   mfc110:mfc110.dll
 0001:000172bc       ?WinHelpInternal@CWinApp@@UAEXKI@Z 004182bc f   mfc110:mfc110.dll
 0001:000172c2       ?RegisterWithRestartManager@CWinApp@@UAEJPB_WKP6GKPAX@Z1KK@Z 004182c2 f   mfc110:mfc110.dll
 0001:000172c8       ?RegisterWithRestartManager@CWinApp@@UAEJHABV?$CStringT@DV?$StrTraitMFC_DLL@DV?$ChTraitsCRT@D@ATL@@@@@ATL@@@Z 004182c8 f   mfc110:mfc110.dll
 0001:000172ce       ?ApplicationRecoveryCallback@CWinApp@@UAEKPAX@Z 004182ce f   mfc110:mfc110.dll
 0001:000172d4       ?GetDataRecoveryHandler@CWinApp@@UAEPAVCDataRecoveryHandler@@XZ 004182d4 f   mfc110:mfc110.dll
 0001:000172da       ?IsTaskbarInteractionEnabled@CWinApp@@UAEHXZ 004182da f   mfc110:mfc110.dll
 0001:000172e0       ?RestartInstance@CWinApp@@UAEHXZ 004182e0 f   mfc110:mfc110.dll
 0001:000172e6       ?LoadAppLangResourceDLL@CWinApp@@UAEPAUHINSTANCE__@@XZ 004182e6 f   mfc110:mfc110.dll
 0001:000172ec       ?LoadSysPolicies@CWinApp@@UAEHXZ 004182ec f   mfc110:mfc110.dll
 0001:000172f2       ?DrawItem@CStatic@@UAEXPAUtagDRAWITEMSTRUCT@@@Z 004182f2 f   mfc110:mfc110.dll
 0001:000172f8       ?Create@CStatic@@UAEHPBDKABUtagRECT@@PAVCWnd@@I@Z 004182f8 f   mfc110:mfc110.dll
 0001:000172fe       ?OnChildNotify@CStatic@@MAEHIIJPAJ@Z 004182fe f   mfc110:mfc110.dll
 0001:00017304       ?GetMessageMap@CWnd@@MBEPBUAFX_MSGMAP@@XZ 00418304 f   mfc110:mfc110.dll
 0001:0001730a       ?GetRuntimeClass@CStatic@@UBEPAUCRuntimeClass@@XZ 0041830a f   mfc110:mfc110.dll
 0001:00017310       ?AfxGetModuleState@@YGPAVAFX_MODULE_STATE@@XZ 00418310 f   mfc110:mfc110.dll
 0001:00017316       ?GetRuntimeClass@CFont@@UBEPAUCRuntimeClass@@XZ 00418316 f   mfc110:mfc110.dll
 0001:0001731c       ?GetRuntimeClass@CRgn@@UBEPAUCRuntimeClass@@XZ 0041831c f   mfc110:mfc110.dll
 0001:00017322       ?GetRuntimeClass@CDialogEx@@UBEPAUCRuntimeClass@@XZ 00418322 f   mfc110:mfc110.dll
 0001:00017328       ?GetRuntimeClass@CEdit@@UBEPAUCRuntimeClass@@XZ 00418328 f   mfc110:mfc110.dll
 0001:0001732e       @__security_check_cookie@4 0041832e f   msvcrt:secchk.obj
 0001:0001733d       ??_Etype_info@@UAEPAXI@Z   0041833d f i msvcrt:ti_inst.obj
 0001:00017388       __purecall                 00418388 f   msvcrt:MSVCR110.dll
 0001:0001738e       ___atonexitinit            0041838e f   msvcrt:atonexit.obj
 0001:000173ca       __onexit                   004183ca f   msvcrt:atonexit.obj
 0001:0001746f       _atexit                    0041846f f   msvcrt:atonexit.obj
 0001:00017484       ___raise_securityfailure   00418484 f   msvcrt:gs_report.obj
 0001:000174c1       ___report_gsfailure        004184c1 f   msvcrt:gs_report.obj
 0001:000175ba       ___report_rangecheckfailure 004185ba f   msvcrt:gs_report.obj
 0001:000175c6       ___report_securityfailure  004185c6 f   msvcrt:gs_report.obj
 0001:00017694       ??0exception@std@@QAE@ABV01@@Z 00418694 f   msvcrt:MSVCR110.dll
 0001:0001769a       ??0bad_cast@std@@QAE@ABV01@@Z 0041869a f   msvcrt:MSVCR110.dll
 0001:000176a0       ??1bad_cast@std@@UAE@XZ    004186a0 f   msvcrt:MSVCR110.dll
 0001:000177aa       _WinMainCRTStartup         004187aa f   msvcrt:crtexew.obj
 0001:00017965       ??_M@YGXPAXIHP6EX0@Z@Z     00418965 f   msvcrt:ehvecdtr.obj
 0001:000179d4       ?__ArrayUnwind@@YGXPAXIHP6EX0@Z@Z 004189d4 f   msvcrt:ehvecdtr.obj
 0001:00017a32       ??1type_info@@UAE@XZ       00418a32 f   msvcrt:MSVCR110.dll
 0001:00017a38       __lock                     00418a38 f   msvcrt:MSVCR110.dll
 0001:00017a3e       __unlock                   00418a3e f   msvcrt:MSVCR110.dll
 0001:00017a44       ___dllonexit               00418a44 f   msvcrt:MSVCR110.dll
 0001:00017a50       __SEH_prolog4              00418a50 f   msvcrt:sehprolg4.obj
 0001:00017a95       __SEH_epilog4              00418a95 f   msvcrt:sehprolg4.obj
 0001:00017aa9       __except_handler4          00418aa9 f   msvcrt:chandler4gs.obj
 0001:00017acc       __crt_debugger_hook        00418acc f   msvcrt:MSVCR110.dll
 0001:00017ad2       ___crtUnhandledException   00418ad2 f   msvcrt:MSVCR110.dll
 0001:00017ad8       ___crtTerminateProcess     00418ad8 f   msvcrt:MSVCR110.dll
 0001:00017ade       ?__CxxUnhandledExceptionFilter@@YGJPAU_EXCEPTION_POINTERS@@@Z 00418ade f   msvcrt:unhandld.obj
 0001:00017b1f       ___CxxSetUnhandledExceptionFilter 00418b1f f   msvcrt:unhandld.obj
 0001:00017b2e       __XcptFilter               00418b2e f   msvcrt:MSVCR110.dll
 0001:00017b34       __amsg_exit                00418b34 f   msvcrt:MSVCR110.dll
 0001:00017b3a       __matherr                  00418b3a f   msvcrt:merr.obj
 0001:00017b3a       __setargv                  00418b3a f   msvcrt:dllargv.obj
 0001:00017b40       __FindPESection            00418b40 f   msvcrt:pesect.obj
 0001:00017b90       __IsNonwritableInCurrentImage 00418b90 f   msvcrt:pesect.obj
 0001:00017c50       __ValidateImageBase        00418c50 f   msvcrt:pesect.obj
 0001:00017c81       ___security_init_cookie    00418c81 f   msvcrt:gs_support.obj
 0001:00017d1b       __RTC_Initialize           00418d1b f   msvcrt:initsect.obj
 0001:00017d3b       __RTC_Terminate            00418d3b f   msvcrt:initsect.obj
 0001:00017d5b       __setdefaultprecision      00418d5b f   msvcrt:fp8.obj
 0001:00017d82       __initterm_e               00418d82 f   msvcrt:MSVCR110.dll
 0001:00017d88       __initterm                 00418d88 f   msvcrt:MSVCR110.dll
 0001:00017d8e       ?terminate@@YAXXZ          00418d8e f   msvcrt:MSVCR110.dll
 0001:00017d94       __except_handler4_common   00418d94 f   msvcrt:MSVCR110.dll
 0001:00017d9a       ___crtSetUnhandledExceptionFilter 00418d9a f   msvcrt:MSVCR110.dll
 0001:00017da0       __invoke_watson            00418da0 f   msvcrt:MSVCR110.dll
 0001:00017da6       __controlfp_s              00418da6 f   msvcrt:MSVCR110.dll
 0001:00017dac       _IsProcessorFeaturePresent@4 00418dac f   kernel32:KERNEL32.dll
 0001:00017db2       ??1_Fac_node@std@@QAE@XZ   00418db2 f i msvcprt:locale0_implib.obj
 0001:00017dc7       ??1_Fac_tidy_reg_t@std@@QAE@XZ 00418dc7 f i msvcprt:locale0_implib.obj
 0001:00017deb       ?_Facet_Register@std@@YAXPAV_Facet_base@1@@Z 00418deb f   msvcprt:locale0_implib.obj
 0001:00017e14       ?xsputn@?$basic_streambuf@DU?$char_traits@D@std@@@std@@MAE_JPBD_J@Z 00418e14 f   msvcprt:MSVCP110.dll
 0001:00017e1a       ?showmanyc@?$basic_streambuf@DU?$char_traits@D@std@@@std@@MAE_JXZ 00418e1a f   msvcprt:MSVCP110.dll
 0001:00017e20       ?xsgetn@?$basic_streambuf@DU?$char_traits@D@std@@@std@@MAE_JPAD_J@Z 00418e20 f   msvcprt:MSVCP110.dll
 0001:00017e26       ?_Add_vtordisp2@?$basic_ios@DU?$char_traits@D@std@@@std@@UAEXXZ 00418e26 f   msvcprt:MSVCP110.dll
 0001:00017e2c       ?_Add_vtordisp1@?$basic_ios@DU?$char_traits@D@std@@@std@@UAEXXZ 00418e2c f   msvcprt:MSVCP110.dll
 0001:00017e32       ?AfxInitialize@@YGHHK@Z    00418e32 f   mfcs110:appmodul.obj
 0001:00017e5a       _WinMain@16                00418e5a f   mfcs110:appmodul.obj
 0001:00017e64       ?AfxWinMain@@YGHPAUHINSTANCE__@@0PADH@Z 00418e64 f   mfc110:mfc110.dll
 0001:00017e6a       __CxxThrowException@8      00418e6a f   msvcrt:MSVCR110.dll
 0001:00017e70       ___CxxFrameHandler3        00418e70 f   msvcrt:MSVCR110.dll
 0001:00017e76       _memcmp                    00418e76 f   msvcrt:MSVCR110.dll
 0001:00017e7c       _memcpy                    00418e7c f   msvcrt:MSVCR110.dll
 0001:00017e82       _memset                    00418e82 f   msvcrt:MSVCR110.dll
 0002:00000000       __imp__InitCommonControlsEx@4 0041b000     comctl32:COMCTL32.dll
 0002:00000004       \177COMCTL32_NULL_THUNK_DATA 0041b004     comctl32:COMCTL32.dll
 0002:00000008       __imp__CreatePolygonRgn@12 0041b008     gdi32:GDI32.dll
 0002:0000000c       __imp__CreateRoundRectRgn@24 0041b00c     gdi32:GDI32.dll
 0002:00000010       __imp__CreateSolidBrush@4  0041b010     gdi32:GDI32.dll
 0002:00000014       __imp__CreateFontA@56      0041b014     gdi32:GDI32.dll
 0002:00000018       __imp__SelectObject@8      0041b018     gdi32:GDI32.dll
 0002:0000001c       __imp__CreateCompatibleBitmap@12 0041b01c     gdi32:GDI32.dll
 0002:00000020       __imp__CreateCompatibleDC@4 0041b020     gdi32:GDI32.dll
 0002:00000024       \177GDI32_NULL_THUNK_DATA  0041b024     gdi32:GDI32.dll
 0002:00000028       __imp__CreateDirectoryA@8  0041b028     kernel32:KERNEL32.dll
 0002:0000002c       __imp__CreateMutexA@12     0041b02c     kernel32:KERNEL32.dll
 0002:00000030       __imp__ReleaseMutex@4      0041b030     kernel32:KERNEL32.dll
 0002:00000034       __imp__GetCommState@8      0041b034     kernel32:KERNEL32.dll
 0002:00000038       __imp__SetCommState@8      0041b038     kernel32:KERNEL32.dll
 0002:0000003c       __imp__FormatMessageA@28   0041b03c     kernel32:KERNEL32.dll
 0002:00000040       __imp__GetLastError@0      0041b040     kernel32:KERNEL32.dll
 0002:00000044       __imp__LocalFree@4         0041b044     kernel32:KERNEL32.dll
 0002:00000048       __imp__SetCommTimeouts@8   0041b048     kernel32:KERNEL32.dll
 0002:0000004c       __imp__SetupComm@12        0041b04c     kernel32:KERNEL32.dll
 0002:00000050       __imp__Sleep@4             0041b050     kernel32:KERNEL32.dll
 0002:00000054       __imp__WriteFile@20        0041b054     kernel32:KERNEL32.dll
 0002:00000058       __imp__ReadFile@20         0041b058     kernel32:KERNEL32.dll
 0002:0000005c       __imp__ClearCommError@12   0041b05c     kernel32:KERNEL32.dll
 0002:00000060       __imp__EncodePointer@4     0041b060     kernel32:KERNEL32.dll
 0002:00000064       __imp__DecodePointer@4     0041b064     kernel32:KERNEL32.dll
 0002:00000068       __imp__IsDebuggerPresent@0 0041b068     kernel32:KERNEL32.dll
 0002:0000006c       __imp__IsProcessorFeaturePresent@4 0041b06c     kernel32:KERNEL32.dll
 0002:00000070       __imp__QueryPerformanceCounter@4 0041b070     kernel32:KERNEL32.dll
 0002:00000074       __imp__GetSystemTimeAsFileTime@4 0041b074     kernel32:KERNEL32.dll
 0002:00000078       __imp__WaitForSingleObject@8 0041b078     kernel32:KERNEL32.dll
 0002:0000007c       __imp__SetEvent@4          0041b07c     kernel32:KERNEL32.dll
 0002:00000080       __imp__SetUnhandledExceptionFilter@4 0041b080     kernel32:KERNEL32.dll
 0002:00000084       __imp__GetCurrentThreadId@0 0041b084     kernel32:KERNEL32.dll
 0002:00000088       __imp__CreateFileA@28      0041b088     kernel32:KERNEL32.dll
 0002:0000008c       __imp__GetCurrentProcess@0 0041b08c     kernel32:KERNEL32.dll
 0002:00000090       __imp__CloseHandle@4       0041b090     kernel32:KERNEL32.dll
 0002:00000094       __imp__GetPrivateProfileIntA@16 0041b094     kernel32:KERNEL32.dll
 0002:00000098       __imp__GetPrivateProfileStringA@24 0041b098     kernel32:KERNEL32.dll
 0002:0000009c       __imp__WritePrivateProfileStringA@16 0041b09c     kernel32:KERNEL32.dll
 0002:000000a0       __imp__PurgeComm@8         0041b0a0     kernel32:KERNEL32.dll
 0002:000000a4       __imp__GetModuleFileNameA@12 0041b0a4     kernel32:KERNEL32.dll
 0002:000000a8       __imp__GetCurrentProcessId@0 0041b0a8     kernel32:KERNEL32.dll
 0002:000000ac       \177KERNEL32_NULL_THUNK_DATA 0041b0ac     kernel32:KERNEL32.dll
 0002:000000b0       __imp_?pptr@?$basic_streambuf@DU?$char_traits@D@std@@@std@@IBEPADXZ 0041b0b0     msvcprt:MSVCP110.dll
 0002:000000b4       __imp_??1?$basic_streambuf@DU?$char_traits@D@std@@@std@@UAE@XZ 0041b0b4     msvcprt:MSVCP110.dll
 0002:000000b8       __imp_??1?$basic_ostream@DU?$char_traits@D@std@@@std@@UAE@XZ 0041b0b8     msvcprt:MSVCP110.dll
 0002:000000bc       __imp_??Bid@locale@std@@QAEIXZ 0041b0bc     msvcprt:MSVCP110.dll
 0002:000000c0       __imp_?_Getgloballocale@locale@std@@CAPAV_Locimp@12@XZ 0041b0c0     msvcprt:MSVCP110.dll
 0002:000000c4       __imp_??0_Lockit@std@@QAE@H@Z 0041b0c4     msvcprt:MSVCP110.dll
 0002:000000c8       __imp_??1_Lockit@std@@QAE@XZ 0041b0c8     msvcprt:MSVCP110.dll
 0002:000000cc       __imp_?widen@?$basic_ios@DU?$char_traits@D@std@@@std@@QBEDD@Z 0041b0cc     msvcprt:MSVCP110.dll
 0002:000000d0       __imp_??0?$basic_ostream@DU?$char_traits@D@std@@@std@@QAE@PAV?$basic_streambuf@DU?$char_traits@D@std@@@1@_N@Z 0041b0d0     msvcprt:MSVCP110.dll
 0002:000000d4       __imp_??0?$basic_ios@DU?$char_traits@D@std@@@std@@IAE@XZ 0041b0d4     msvcprt:MSVCP110.dll
 0002:000000d8       __imp_?eof@ios_base@std@@QBE_NXZ 0041b0d8     msvcprt:MSVCP110.dll
 0002:000000dc       __imp_??1?$basic_ios@DU?$char_traits@D@std@@@std@@UAE@XZ 0041b0dc     msvcprt:MSVCP110.dll
 0002:000000e0       __imp_?fail@ios_base@std@@QBE_NXZ 0041b0e0     msvcprt:MSVCP110.dll
 0002:000000e4       __imp_?_Pninc@?$basic_streambuf@DU?$char_traits@D@std@@@std@@IAEPADXZ 0041b0e4     msvcprt:MSVCP110.dll
 0002:000000e8       __imp_?gptr@?$basic_streambuf@DU?$char_traits@D@std@@@std@@IBEPADXZ 0041b0e8     msvcprt:MSVCP110.dll
 0002:000000ec       __imp_?tie@?$basic_ios@DU?$char_traits@D@std@@@std@@QBEPAV?$basic_ostream@DU?$char_traits@D@std@@@2@XZ 0041b0ec     msvcprt:MSVCP110.dll
 0002:000000f0       __imp_?uncaught_exception@std@@YA_NXZ 0041b0f0     msvcprt:MSVCP110.dll
 0002:000000f4       __imp_?good@ios_base@std@@QBE_NXZ 0041b0f4     msvcprt:MSVCP110.dll
 0002:000000f8       __imp_?flags@ios_base@std@@QBEHXZ 0041b0f8     msvcprt:MSVCP110.dll
 0002:000000fc       __imp_?_Osfx@?$basic_ostream@DU?$char_traits@D@std@@@std@@QAEXXZ 0041b0fc     msvcprt:MSVCP110.dll
 0002:00000100       __imp_?rdbuf@?$basic_ios@DU?$char_traits@D@std@@@std@@QBEPAV?$basic_streambuf@DU?$char_traits@D@std@@@2@XZ 0041b100     msvcprt:MSVCP110.dll
 0002:00000104       __imp_?clear@?$basic_ios@DU?$char_traits@D@std@@@std@@QAEXH_N@Z 0041b104     msvcprt:MSVCP110.dll
 0002:00000108       __imp_?setstate@?$basic_ios@DU?$char_traits@D@std@@@std@@QAEXH_N@Z 0041b108     msvcprt:MSVCP110.dll
 0002:0000010c       __imp_?flush@?$basic_ostream@DU?$char_traits@D@std@@@std@@QAEAAV12@XZ 0041b10c     msvcprt:MSVCP110.dll
 0002:00000110       __imp_?endl@std@@YAAAV?$basic_ostream@DU?$char_traits@D@std@@@1@AAV21@@Z 0041b110     msvcprt:MSVCP110.dll
 0002:00000114       __imp_?cout@std@@3V?$basic_ostream@DU?$char_traits@D@std@@@1@A 0041b114     msvcprt:MSVCP110.dll
 0002:00000118       __imp_?_Orphan_all@_Container_base0@std@@QAEXXZ 0041b118     msvcprt:MSVCP110.dll
 0002:0000011c       __imp_??0_Container_base12@std@@QAE@XZ 0041b11c     msvcprt:MSVCP110.dll
 0002:00000120       __imp_??1_Container_base12@std@@QAE@XZ 0041b120     msvcprt:MSVCP110.dll
 0002:00000124       __imp_?_Orphan_all@_Container_base12@std@@QAEXXZ 0041b124     msvcprt:MSVCP110.dll
 0002:00000128       __imp_?_Syserror_map@std@@YAPBDH@Z 0041b128     msvcprt:MSVCP110.dll
 0002:0000012c       __imp_?_Xout_of_range@std@@YAXPBD@Z 0041b12c     msvcprt:MSVCP110.dll
 0002:00000130       __imp_?_Xlength_error@std@@YAXPBD@Z 0041b130     msvcprt:MSVCP110.dll
 0002:00000134       __imp_?_Xbad_alloc@std@@YAXXZ 0041b134     msvcprt:MSVCP110.dll
 0002:00000138       __imp_?_Gninc@?$basic_streambuf@DU?$char_traits@D@std@@@std@@IAEPADXZ 0041b138     msvcprt:MSVCP110.dll
 0002:0000013c       __imp_?_BADOFF@std@@3_JB   0041b13c     msvcprt:MSVCP110.dll
 0002:00000140       __imp_??1?$basic_istream@DU?$char_traits@D@std@@@std@@UAE@XZ 0041b140     msvcprt:MSVCP110.dll
 0002:00000144       __imp_?width@ios_base@std@@QAE_J_J@Z 0041b144     msvcprt:MSVCP110.dll
 0002:00000148       __imp_?width@ios_base@std@@QBE_JXZ 0041b148     msvcprt:MSVCP110.dll
 0002:0000014c       __imp_?_Fiopen@std@@YAPAU_iobuf@@PBDHH@Z 0041b14c     msvcprt:MSVCP110.dll
 0002:00000150       __imp_?always_noconv@codecvt_base@std@@QBE_NXZ 0041b150     msvcprt:MSVCP110.dll
 0002:00000154       __imp_?id@?$codecvt@DDH@std@@2V0locale@2@A 0041b154     msvcprt:MSVCP110.dll
 0002:00000158       __imp_?xsputn@?$basic_streambuf@DU?$char_traits@D@std@@@std@@MAE_JPBD_J@Z 0041b158     msvcprt:MSVCP110.dll
 0002:0000015c       __imp_?_Ipfx@?$basic_istream@DU?$char_traits@D@std@@@std@@QAE_N_N@Z 0041b15c     msvcprt:MSVCP110.dll
 0002:00000160       __imp_?snextc@?$basic_streambuf@DU?$char_traits@D@std@@@std@@QAEHXZ 0041b160     msvcprt:MSVCP110.dll
 0002:00000164       __imp_?sgetc@?$basic_streambuf@DU?$char_traits@D@std@@@std@@QAEHXZ 0041b164     msvcprt:MSVCP110.dll
 0002:00000168       __imp_?sbumpc@?$basic_streambuf@DU?$char_traits@D@std@@@std@@QAEHXZ 0041b168     msvcprt:MSVCP110.dll
 0002:0000016c       __imp_?showmanyc@?$basic_streambuf@DU?$char_traits@D@std@@@std@@MAE_JXZ 0041b16c     msvcprt:MSVCP110.dll
 0002:00000170       __imp_?xsgetn@?$basic_streambuf@DU?$char_traits@D@std@@@std@@MAE_JPAD_J@Z 0041b170     msvcprt:MSVCP110.dll
 0002:00000174       __imp_?_Add_vtordisp2@?$basic_ios@DU?$char_traits@D@std@@@std@@UAEXXZ 0041b174     msvcprt:MSVCP110.dll
 0002:00000178       __imp_?_Add_vtordisp1@?$basic_ios@DU?$char_traits@D@std@@@std@@UAEXXZ 0041b178     msvcprt:MSVCP110.dll
 0002:0000017c       __imp_?_Add_vtordisp2@?$basic_ostream@DU?$char_traits@D@std@@@std@@UAEXXZ 0041b17c     msvcprt:MSVCP110.dll
 0002:00000180       __imp_?_Add_vtordisp1@?$basic_istream@DU?$char_traits@D@std@@@std@@UAEXXZ 0041b180     msvcprt:MSVCP110.dll
 0002:00000184       __imp_?sputn@?$basic_streambuf@DU?$char_traits@D@std@@@std@@QAE_JPBD_J@Z 0041b184     msvcprt:MSVCP110.dll
 0002:00000188       __imp_?_Getcat@?$codecvt@DDH@std@@SAIPAPBVfacet@locale@2@PBV42@@Z 0041b188     msvcprt:MSVCP110.dll
 0002:0000018c       __imp_?_Init@?$basic_streambuf@DU?$char_traits@D@std@@@std@@IAEXPAPAD0PAH001@Z 0041b18c     msvcprt:MSVCP110.dll
 0002:00000190       __imp_?_Init@?$basic_streambuf@DU?$char_traits@D@std@@@std@@IAEXXZ 0041b190     msvcprt:MSVCP110.dll
 0002:00000194       __imp_?setg@?$basic_streambuf@DU?$char_traits@D@std@@@std@@IAEXPAD00@Z 0041b194     msvcprt:MSVCP110.dll
 0002:00000198       __imp_?getloc@?$basic_streambuf@DU?$char_traits@D@std@@@std@@QBE?AVlocale@2@XZ 0041b198     msvcprt:MSVCP110.dll
 0002:0000019c       __imp_??0?$basic_streambuf@DU?$char_traits@D@std@@@std@@IAE@XZ 0041b19c     msvcprt:MSVCP110.dll
 0002:000001a0       __imp_?unshift@?$codecvt@DDH@std@@QBEHAAHPAD1AAPAD@Z 0041b1a0     msvcprt:MSVCP110.dll
 0002:000001a4       __imp_??0?$basic_istream@DU?$char_traits@D@std@@@std@@QAE@PAV?$basic_streambuf@DU?$char_traits@D@std@@@1@_N@Z 0041b1a4     msvcprt:MSVCP110.dll
 0002:000001a8       __imp_?fill@?$basic_ios@DU?$char_traits@D@std@@@std@@QBEDXZ 0041b1a8     msvcprt:MSVCP110.dll
 0002:000001ac       __imp_?_Gndec@?$basic_streambuf@DU?$char_traits@D@std@@@std@@IAEPADXZ 0041b1ac     msvcprt:MSVCP110.dll
 0002:000001b0       __imp_?epptr@?$basic_streambuf@DU?$char_traits@D@std@@@std@@IBEPADXZ 0041b1b0     msvcprt:MSVCP110.dll
 0002:000001b4       __imp_?egptr@?$basic_streambuf@DU?$char_traits@D@std@@@std@@IBEPADXZ 0041b1b4     msvcprt:MSVCP110.dll
 0002:000001b8       __imp_?eback@?$basic_streambuf@DU?$char_traits@D@std@@@std@@IBEPADXZ 0041b1b8     msvcprt:MSVCP110.dll
 0002:000001bc       __imp_?out@?$codecvt@DDH@std@@QBEHAAHPBD1AAPBDPAD3AAPAD@Z 0041b1bc     msvcprt:MSVCP110.dll
 0002:000001c0       __imp_?in@?$codecvt@DDH@std@@QBEHAAHPBD1AAPBDPAD3AAPAD@Z 0041b1c0     msvcprt:MSVCP110.dll
 0002:000001c4       __imp_??6?$basic_ostream@DU?$char_traits@D@std@@@std@@QAEAAV01@P6AAAV01@AAV01@@Z@Z 0041b1c4     msvcprt:MSVCP110.dll
 0002:000001c8       __imp_?_Winerror_map@std@@YAPBDH@Z 0041b1c8     msvcprt:MSVCP110.dll
 0002:000001cc       __imp_??0id@locale@std@@QAE@I@Z 0041b1cc     msvcprt:MSVCP110.dll
 0002:000001d0       __imp_?sputc@?$basic_streambuf@DU?$char_traits@D@std@@@std@@QAEHD@Z 0041b1d0     msvcprt:MSVCP110.dll
 0002:000001d4       \177MSVCP110_NULL_THUNK_DATA 0041b1d4     msvcprt:MSVCP110.dll
 0002:000001d8       __imp___CxxThrowException@8 0041b1d8     msvcrt:MSVCR110.dll
 0002:000001dc       __imp____CxxFrameHandler3  0041b1dc     msvcrt:MSVCR110.dll
 0002:000001e0       __imp__memcmp              0041b1e0     msvcrt:MSVCR110.dll
 0002:000001e4       __imp__memcpy              0041b1e4     msvcrt:MSVCR110.dll
 0002:000001e8       __imp___time64             0041b1e8     msvcrt:MSVCR110.dll
 0002:000001ec       __imp___setmbcp            0041b1ec     msvcrt:MSVCR110.dll
 0002:000001f0       __imp___controlfp_s        0041b1f0     msvcrt:MSVCR110.dll
 0002:000001f4       __imp___invoke_watson      0041b1f4     msvcrt:MSVCR110.dll
 0002:000001f8       __imp____crtSetUnhandledExceptionFilter 0041b1f8     msvcrt:MSVCR110.dll
 0002:000001fc       __imp___except_handler4_common 0041b1fc     msvcrt:MSVCR110.dll
 0002:00000200       __imp_?terminate@@YAXXZ    0041b200     msvcrt:MSVCR110.dll
 0002:00000204       __imp___commode            0041b204     msvcrt:MSVCR110.dll
 0002:00000208       __imp___fmode              0041b208     msvcrt:MSVCR110.dll
 0002:0000020c       __imp___acmdln             0041b20c     msvcrt:MSVCR110.dll
 0002:00000210       __imp___initterm           0041b210     msvcrt:MSVCR110.dll
 0002:00000214       __imp___initterm_e         0041b214     msvcrt:MSVCR110.dll
 0002:00000218       __imp____setusermatherr    0041b218     msvcrt:MSVCR110.dll
 0002:0000021c       __imp___configthreadlocale 0041b21c     msvcrt:MSVCR110.dll
 0002:00000220       __imp___ismbblead          0041b220     msvcrt:MSVCR110.dll
 0002:00000224       __imp___cexit              0041b224     msvcrt:MSVCR110.dll
 0002:00000228       __imp___exit               0041b228     msvcrt:MSVCR110.dll
 0002:0000022c       __imp__exit                0041b22c     msvcrt:MSVCR110.dll
 0002:00000230       __imp____set_app_type      0041b230     msvcrt:MSVCR110.dll
 0002:00000234       __imp____getmainargs       0041b234     msvcrt:MSVCR110.dll
 0002:00000238       __imp___amsg_exit          0041b238     msvcrt:MSVCR110.dll
 0002:0000023c       __imp____crtGetShowWindowMode 0041b23c     msvcrt:MSVCR110.dll
 0002:00000240       __imp___XcptFilter         0041b240     msvcrt:MSVCR110.dll
 0002:00000244       __imp____crtTerminateProcess 0041b244     msvcrt:MSVCR110.dll
 0002:00000248       __imp____crtUnhandledException 0041b248     msvcrt:MSVCR110.dll
 0002:0000024c       __imp___crt_debugger_hook  0041b24c     msvcrt:MSVCR110.dll
 0002:00000250       __imp___onexit             0041b250     msvcrt:MSVCR110.dll
 0002:00000254       __imp____dllonexit         0041b254     msvcrt:MSVCR110.dll
 0002:00000258       __imp___calloc_crt         0041b258     msvcrt:MSVCR110.dll
 0002:0000025c       __imp___unlock             0041b25c     msvcrt:MSVCR110.dll
 0002:00000260       __imp___lock               0041b260     msvcrt:MSVCR110.dll
 0002:00000264       __imp_??1type_info@@UAE@XZ 0041b264     msvcrt:MSVCR110.dll
 0002:00000268       __imp__strcpy_s            0041b268     msvcrt:MSVCR110.dll
 0002:0000026c       __imp__fclose              0041b26c     msvcrt:MSVCR110.dll
 0002:00000270       __imp__fflush              0041b270     msvcrt:MSVCR110.dll
 0002:00000274       __imp__setvbuf             0041b274     msvcrt:MSVCR110.dll
 0002:00000278       __imp__fsetpos             0041b278     msvcrt:MSVCR110.dll
 0002:0000027c       __imp__fgetpos             0041b27c     msvcrt:MSVCR110.dll
 0002:00000280       __imp___fseeki64           0041b280     msvcrt:MSVCR110.dll
 0002:00000284       __imp__fgetc               0041b284     msvcrt:MSVCR110.dll
 0002:00000288       __imp__ungetc              0041b288     msvcrt:MSVCR110.dll
 0002:0000028c       __imp__fwrite              0041b28c     msvcrt:MSVCR110.dll
 0002:00000290       __imp__fputc               0041b290     msvcrt:MSVCR110.dll
 0002:00000294       __imp___unlock_file        0041b294     msvcrt:MSVCR110.dll
 0002:00000298       __imp___lock_file          0041b298     msvcrt:MSVCR110.dll
 0002:0000029c       __imp_??0bad_cast@std@@QAE@PBD@Z 0041b29c     msvcrt:MSVCR110.dll
 0002:000002a0       __imp_??1bad_cast@std@@UAE@XZ 0041b2a0     msvcrt:MSVCR110.dll
 0002:000002a4       __imp_??0bad_cast@std@@QAE@ABV01@@Z 0041b2a4     msvcrt:MSVCR110.dll
 0002:000002a8       __imp__atof                0041b2a8     msvcrt:MSVCR110.dll
 0002:000002ac       __imp__malloc              0041b2ac     msvcrt:MSVCR110.dll
 0002:000002b0       __imp_??0exception@std@@QAE@ABV01@@Z 0041b2b0     msvcrt:MSVCR110.dll
 0002:000002b4       __imp__strftime            0041b2b4     msvcrt:MSVCR110.dll
 0002:000002b8       __imp___localtime64_s      0041b2b8     msvcrt:MSVCR110.dll
 0002:000002bc       __imp__memset              0041b2bc     msvcrt:MSVCR110.dll
 0002:000002c0       __imp___vsnprintf_s        0041b2c0     msvcrt:MSVCR110.dll
 0002:000002c4       __imp___recalloc           0041b2c4     msvcrt:MSVCR110.dll
 0002:000002c8       __imp__calloc              0041b2c8     msvcrt:MSVCR110.dll
 0002:000002cc       __imp__free                0041b2cc     msvcrt:MSVCR110.dll
 0002:000002d0       __imp__memcpy_s            0041b2d0     msvcrt:MSVCR110.dll
 0002:000002d4       __imp__isdigit             0041b2d4     msvcrt:MSVCR110.dll
 0002:000002d8       __imp__isalpha             0041b2d8     msvcrt:MSVCR110.dll
 0002:000002dc       __imp___purecall           0041b2dc     msvcrt:MSVCR110.dll
 0002:000002e0       __imp__memmove             0041b2e0     msvcrt:MSVCR110.dll
 0002:000002e4       \177MSVCR110_NULL_THUNK_DATA 0041b2e4     msvcrt:MSVCR110.dll
 0002:000002e8       __imp__SystemTimeToVariantTime@8 0041b2e8     oleaut32:OLEAUT32.dll
 0002:000002ec       __imp__VariantTimeToSystemTime@12 0041b2ec     oleaut32:OLEAUT32.dll
 0002:000002f0       __imp__VarUdateFromDate@16 0041b2f0     oleaut32:OLEAUT32.dll
 0002:000002f4       __imp__VariantInit@4       0041b2f4     oleaut32:OLEAUT32.dll
 0002:000002f8       \177OLEAUT32_NULL_THUNK_DATA 0041b2f8     oleaut32:OLEAUT32.dll
 0002:000002fc       __imp__SHFileOperationA@4  0041b2fc     shell32:SHELL32.dll
 0002:00000300       \177SHELL32_NULL_THUNK_DATA 0041b300     shell32:SHELL32.dll
 0002:00000304       __imp__PathIsDirectoryA@4  0041b304     shlwapi:SHLWAPI.dll
 0002:00000308       \177SHLWAPI_NULL_THUNK_DATA 0041b308     shlwapi:SHLWAPI.dll
 0002:0000030c       __imp__SendMessageA@16     0041b30c     user32:USER32.dll
 0002:00000310       __imp__EnableWindow@8      0041b310     user32:USER32.dll
 0002:00000314       __imp__KillTimer@8         0041b314     user32:USER32.dll
 0002:00000318       __imp__SetWindowRgn@12     0041b318     user32:USER32.dll
 0002:0000031c       __imp__SetClassLongA@12    0041b31c     user32:USER32.dll
 0002:00000320       __imp__GetClassLongA@8     0041b320     user32:USER32.dll
 0002:00000324       __imp__GetDC@4             0041b324     user32:USER32.dll
 0002:00000328       __imp__GetDesktopWindow@0  0041b328     user32:USER32.dll
 0002:0000032c       __imp__CopyRect@8          0041b32c     user32:USER32.dll
 0002:00000330       __imp__ShowWindow@8        0041b330     user32:USER32.dll
 0002:00000334       __imp__SetParent@8         0041b334     user32:USER32.dll
 0002:00000338       __imp__DrawIcon@16         0041b338     user32:USER32.dll
 0002:0000033c       __imp__GetSystemMetrics@4  0041b33c     user32:USER32.dll
 0002:00000340       __imp__IsIconic@4          0041b340     user32:USER32.dll
 0002:00000344       __imp__SetTimer@16         0041b344     user32:USER32.dll
 0002:00000348       __imp__AppendMenuA@16      0041b348     user32:USER32.dll
 0002:0000034c       __imp__GetSystemMenu@8     0041b34c     user32:USER32.dll
 0002:00000350       __imp__LoadIconW@8         0041b350     user32:USER32.dll
 0002:00000354       __imp__GetClientRect@8     0041b354     user32:USER32.dll
 0002:00000358       __imp__GetParent@4         0041b358     user32:USER32.dll
 0002:0000035c       __imp__MessageBoxA@16      0041b35c     user32:USER32.dll
 0002:00000360       \177USER32_NULL_THUNK_DATA 0041b360     user32:USER32.dll
 0002:00000364       __imp__MiniDumpWriteDump@28 0041b364     Dbghelp:dbghelp.dll
 0002:00000368       \177dbghelp_NULL_THUNK_DATA 0041b368     Dbghelp:dbghelp.dll
 0002:0000036c       __imp_?ShowWindow@CWnd@@QAEHH@Z 0041b36c     mfc110:mfc110.dll
 0002:00000370       __imp_??Y?$CStringT@DV?$StrTraitMFC_DLL@DV?$ChTraitsCRT@D@ATL@@@@@ATL@@QAEAAV01@PBD@Z 0041b370     mfc110:mfc110.dll
 0002:00000374       __imp_?GetRuntimeClass@CDialogEx@@UBEPAUCRuntimeClass@@XZ 0041b374     mfc110:mfc110.dll
 0002:00000378       __imp_?TrimLeft@?$CStringT@DV?$StrTraitMFC_DLL@DV?$ChTraitsCRT@D@ATL@@@@@ATL@@QAEAAV12@PBD@Z 0041b378     mfc110:mfc110.dll
 0002:0000037c       __imp_?TrimRight@?$CStringT@DV?$StrTraitMFC_DLL@DV?$ChTraitsCRT@D@ATL@@@@@ATL@@QAEAAV12@PBD@Z 0041b37c     mfc110:mfc110.dll
 0002:00000380       __imp_?Find@?$CStringT@DV?$StrTraitMFC_DLL@DV?$ChTraitsCRT@D@ATL@@@@@ATL@@QBEHDH@Z 0041b380     mfc110:mfc110.dll
 0002:00000384       __imp_??4?$CStringT@DV?$StrTraitMFC_DLL@DV?$ChTraitsCRT@D@ATL@@@@@ATL@@QAEAAV01@D@Z 0041b384     mfc110:mfc110.dll
 0002:00000388       __imp_?SetAt@?$CSimpleStringT@D$00@ATL@@QAEXHD@Z 0041b388     mfc110:mfc110.dll
 0002:0000038c       __imp_?GetAt@?$CSimpleStringT@D$00@ATL@@QBEDH@Z 0041b38c     mfc110:mfc110.dll
 0002:00000390       __imp_?GetRuntimeClass@CEdit@@UBEPAUCRuntimeClass@@XZ 0041b390     mfc110:mfc110.dll
 0002:00000394       __imp_??1CEdit@@UAE@XZ     0041b394     mfc110:mfc110.dll
 0002:00000398       __imp_?DDX_Control@@YGXPAVCDataExchange@@HAAVCWnd@@@Z 0041b398     mfc110:mfc110.dll
 0002:0000039c       __imp_?UpdateData@CWnd@@QAEHH@Z 0041b39c     mfc110:mfc110.dll
 0002:000003a0       __imp_?RestartInstance@CWinApp@@UAEHXZ 0041b3a0     mfc110:mfc110.dll
 0002:000003a4       __imp_?IsTaskbarInteractionEnabled@CWinApp@@UAEHXZ 0041b3a4     mfc110:mfc110.dll
 0002:000003a8       __imp_?GetDataRecoveryHandler@CWinApp@@UAEPAVCDataRecoveryHandler@@XZ 0041b3a8     mfc110:mfc110.dll
 0002:000003ac       __imp_?ApplicationRecoveryCallback@CWinApp@@UAEKPAX@Z 0041b3ac     mfc110:mfc110.dll
 0002:000003b0       __imp_?RegisterWithRestartManager@CWinApp@@UAEJHABV?$CStringT@DV?$StrTraitMFC_DLL@DV?$ChTraitsCRT@D@ATL@@@@@ATL@@@Z 0041b3b0     mfc110:mfc110.dll
 0002:000003b4       __imp_?RegisterWithRestartManager@CWinApp@@UAEJPB_WKP6GKPAX@Z1KK@Z 0041b3b4     mfc110:mfc110.dll
 0002:000003b8       __imp_?WinHelpInternal@CWinApp@@UAEXKI@Z 0041b3b8     mfc110:mfc110.dll
 0002:000003bc       __imp_?HtmlHelpA@CWinApp@@UAEXKI@Z 0041b3bc     mfc110:mfc110.dll
 0002:000003c0       __imp_?WinHelpA@CWinApp@@UAEXKI@Z 0041b3c0     mfc110:mfc110.dll
 0002:000003c4       __imp_?OnDDECommand@CWinApp@@UAEHPAD@Z 0041b3c4     mfc110:mfc110.dll
 0002:000003c8       __imp_?DoWaitCursor@CWinApp@@UAEXH@Z 0041b3c8     mfc110:mfc110.dll
 0002:000003cc       __imp_?DoMessageBox@CWinApp@@UAEHPBDII@Z 0041b3cc     mfc110:mfc110.dll
 0002:000003d0       __imp_?SaveAllModified@CWinApp@@UAEHXZ 0041b3d0     mfc110:mfc110.dll
 0002:000003d4       __imp_?InitApplication@CWinApp@@UAEHXZ 0041b3d4     mfc110:mfc110.dll
 0002:000003d8       __imp_?AddToRecentFileList@CWinApp@@UAEXPBD@Z 0041b3d8     mfc110:mfc110.dll
 0002:000003dc       __imp_?OpenDocumentFile@CWinApp@@UAEPAVCDocument@@PBD@Z 0041b3dc     mfc110:mfc110.dll
 0002:000003e0       __imp_?OpenDocumentFile@CWinApp@@UAEPAVCDocument@@PBDH@Z 0041b3e0     mfc110:mfc110.dll
 0002:000003e4       __imp_?Unregister@CWinApp@@UAEHXZ 0041b3e4     mfc110:mfc110.dll
 0002:000003e8       __imp_?Register@CWinApp@@UAEHXZ 0041b3e8     mfc110:mfc110.dll
 0002:000003ec       __imp_?InitLibId@CWinApp@@UAEXXZ 0041b3ec     mfc110:mfc110.dll
 0002:000003f0       __imp_?WriteProfileBinary@CWinApp@@UAEHPBD0PAEI@Z 0041b3f0     mfc110:mfc110.dll
 0002:000003f4       __imp_?GetProfileBinary@CWinApp@@UAEHPBD0PAPAEPAI@Z 0041b3f4     mfc110:mfc110.dll
 0002:000003f8       __imp_?WriteProfileStringA@CWinApp@@UAEHPBD00@Z 0041b3f8     mfc110:mfc110.dll
 0002:000003fc       __imp_?GetProfileStringA@CWinApp@@UAE?AV?$CStringT@DV?$StrTraitMFC_DLL@DV?$ChTraitsCRT@D@ATL@@@@@ATL@@PBD00@Z 0041b3fc     mfc110:mfc110.dll
 0002:00000400       __imp_?WriteProfileInt@CWinApp@@UAEHPBD0H@Z 0041b400     mfc110:mfc110.dll
 0002:00000404       __imp_?GetProfileIntA@CWinApp@@UAEIPBD0H@Z 0041b404     mfc110:mfc110.dll
 0002:00000408       __imp_?Delete@CWinThread@@UAEXXZ 0041b408     mfc110:mfc110.dll
 0002:0000040c       __imp_?GetMainWnd@CWinThread@@UAEPAVCWnd@@XZ 0041b40c     mfc110:mfc110.dll
 0002:00000410       __imp_?ProcessMessageFilter@CWinThread@@UAEHHPAUtagMSG@@@Z 0041b410     mfc110:mfc110.dll
 0002:00000414       __imp_?ProcessWndProcException@CWinApp@@UAEJPAVCException@@PBUtagMSG@@@Z 0041b414     mfc110:mfc110.dll
 0002:00000418       __imp_?IsIdleMessage@CWinThread@@UAEHPAUtagMSG@@@Z 0041b418     mfc110:mfc110.dll
 0002:0000041c       __imp_?OnIdle@CWinApp@@UAEHJ@Z 0041b41c     mfc110:mfc110.dll
 0002:00000420       __imp_?PumpMessage@CWinThread@@UAEHXZ 0041b420     mfc110:mfc110.dll
 0002:00000424       __imp_?PreTranslateMessage@CWinThread@@UAEHPAUtagMSG@@@Z 0041b424     mfc110:mfc110.dll
 0002:00000428       __imp_?Run@CWinApp@@UAEHXZ 0041b428     mfc110:mfc110.dll
 0002:0000042c       __imp_?GetInterfaceMap@CCmdTarget@@MBEPBUAFX_INTERFACEMAP@@XZ 0041b42c     mfc110:mfc110.dll
 0002:00000430       __imp_?OnFinalRelease@CCmdTarget@@UAEXXZ 0041b430     mfc110:mfc110.dll
 0002:00000434       __imp_?GetRuntimeClass@CWinApp@@UBEPAUCRuntimeClass@@XZ 0041b434     mfc110:mfc110.dll
 0002:00000438       __imp_?ExitInstance@CWinApp@@UAEHXZ 0041b438     mfc110:mfc110.dll
 0002:0000043c       __imp_?SetRegistryKey@CWinApp@@IAEXPBD@Z 0041b43c     mfc110:mfc110.dll
 0002:00000440       __imp_?GetThisClass@CMFCVisualManagerWindows@@SGPAUCRuntimeClass@@XZ 0041b440     mfc110:mfc110.dll
 0002:00000444       __imp_?SetDefaultManager@CMFCVisualManager@@SGXPAUCRuntimeClass@@@Z 0041b444     mfc110:mfc110.dll
 0002:00000448       __imp_??0CShellManager@@QAE@XZ 0041b448     mfc110:mfc110.dll
 0002:0000044c       __imp_?AfxEnableControlContainer@@YAXPAVCOccManager@@@Z 0041b44c     mfc110:mfc110.dll
 0002:00000450       __imp_?InitInstance@CWinApp@@UAEHXZ 0041b450     mfc110:mfc110.dll
 0002:00000454       __imp_??1CWinApp@@UAE@XZ   0041b454     mfc110:mfc110.dll
 0002:00000458       __imp_??0CWinApp@@QAE@PBD@Z 0041b458     mfc110:mfc110.dll
 0002:0000045c       __imp_?GetThisMessageMap@CWinApp@@KGPBUAFX_MSGMAP@@XZ 0041b45c     mfc110:mfc110.dll
 0002:00000460       __imp_?OnHelp@CWinApp@@IAEXXZ 0041b460     mfc110:mfc110.dll
 0002:00000464       __imp_?GetOccDialogInfo@CWnd@@MAEPAU_AFX_OCC_DIALOG_INFO@@XZ 0041b464     mfc110:mfc110.dll
 0002:00000468       __imp_?SetOccDialogInfo@CWnd@@MAEHPAU_AFX_OCC_DIALOG_INFO@@@Z 0041b468     mfc110:mfc110.dll
 0002:0000046c       __imp_?CheckAutoCenter@CWnd@@UAEHXZ 0041b46c     mfc110:mfc110.dll
 0002:00000470       __imp_?PreTranslateMessage@CWnd@@UAEHPAUtagMSG@@@Z 0041b470     mfc110:mfc110.dll
 0002:00000474       __imp_?OnCommand@CWnd@@MAEHIJ@Z 0041b474     mfc110:mfc110.dll
 0002:00000478       __imp_?OnCmdMsg@CCmdTarget@@UAEHIHPAXPAUAFX_CMDHANDLERINFO@@@Z 0041b478     mfc110:mfc110.dll
 0002:0000047c       __imp_?MessageBoxA@CWnd@@QAEHPBD0I@Z 0041b47c     mfc110:mfc110.dll
 0002:00000480       __imp_?GetThisMessageMap@CWnd@@KGPBUAFX_MSGMAP@@XZ 0041b480     mfc110:mfc110.dll
 0002:00000484       __imp_??1CWnd@@UAE@XZ      0041b484     mfc110:mfc110.dll
 0002:00000488       __imp_??0CWnd@@QAE@XZ      0041b488     mfc110:mfc110.dll
 0002:0000048c       __imp_?GetThisClass@CWnd@@SGPAUCRuntimeClass@@XZ 0041b48c     mfc110:mfc110.dll
 0002:00000490       __imp_?Trim@?$CStringT@DV?$StrTraitMFC_DLL@DV?$ChTraitsCRT@D@ATL@@@@@ATL@@QAEAAV12@XZ 0041b490     mfc110:mfc110.dll
 0002:00000494       __imp_?Right@?$CStringT@DV?$StrTraitMFC_DLL@DV?$ChTraitsCRT@D@ATL@@@@@ATL@@QBE?AV12@H@Z 0041b494     mfc110:mfc110.dll
 0002:00000498       __imp_?AfxThrowInvalidArgException@@YGXXZ 0041b498     mfc110:mfc110.dll
 0002:0000049c       __imp_?Append@?$CSimpleStringT@D$00@ATL@@QAEXPBD@Z 0041b49c     mfc110:mfc110.dll
 0002:000004a0       __imp_?GetString@?$CSimpleStringT@D$00@ATL@@QBEPBDXZ 0041b4a0     mfc110:mfc110.dll
 0002:000004a4       __imp_?AfxThrowMemoryException@@YGXXZ 0041b4a4     mfc110:mfc110.dll
 0002:000004a8       __imp_?AfxThrowOleException@@YGXJ@Z 0041b4a8     mfc110:mfc110.dll
 0002:000004ac       __imp_?ReverseFind@?$CStringT@DV?$StrTraitMFC_DLL@DV?$ChTraitsCRT@D@ATL@@@@@ATL@@QBEHD@Z 0041b4ac     mfc110:mfc110.dll
 0002:000004b0       __imp_?Left@?$CStringT@DV?$StrTraitMFC_DLL@DV?$ChTraitsCRT@D@ATL@@@@@ATL@@QBE?AV12@H@Z 0041b4b0     mfc110:mfc110.dll
 0002:000004b4       __imp_?PreInitDialog@CDialog@@MAEXXZ 0041b4b4     mfc110:mfc110.dll
 0002:000004b8       __imp_?OnCancel@CDialog@@MAEXXZ 0041b4b8     mfc110:mfc110.dll
 0002:000004bc       __imp_?OnSetFont@CDialog@@UAEXPAVCFont@@@Z 0041b4bc     mfc110:mfc110.dll
 0002:000004c0       __imp_?OnInitDialog@CDialog@@UAEHXZ 0041b4c0     mfc110:mfc110.dll
 0002:000004c4       __imp_?DoModal@CDialog@@UAEHXZ 0041b4c4     mfc110:mfc110.dll
 0002:000004c8       __imp_?CreateIndirect@CDialog@@UAEHPBUDLGTEMPLATE@@PAVCWnd@@PAX@Z 0041b4c8     mfc110:mfc110.dll
 0002:000004cc       __imp_?CreateIndirect@CDialog@@UAEHPAXPAVCWnd@@@Z 0041b4cc     mfc110:mfc110.dll
 0002:000004d0       __imp_?Create@CDialog@@UAEHPBDPAVCWnd@@@Z 0041b4d0     mfc110:mfc110.dll
 0002:000004d4       __imp_?GetOccDialogInfo@CDialog@@MAEPAU_AFX_OCC_DIALOG_INFO@@XZ 0041b4d4     mfc110:mfc110.dll
 0002:000004d8       __imp_?SetOccDialogInfo@CDialog@@MAEHPAU_AFX_OCC_DIALOG_INFO@@@Z 0041b4d8     mfc110:mfc110.dll
 0002:000004dc       __imp_?CreateControlSite@CWnd@@MAEHPAVCOleControlContainer@@PAPAVCOleControlSite@@IABU_GUID@@@Z 0041b4dc     mfc110:mfc110.dll
 0002:000004e0       __imp_?CreateControlContainer@CWnd@@MAEHPAPAVCOleControlContainer@@@Z 0041b4e0     mfc110:mfc110.dll
 0002:000004e4       __imp_?IsFrameWnd@CWnd@@UBEHXZ 0041b4e4     mfc110:mfc110.dll
 0002:000004e8       __imp_?CheckAutoCenter@CDialog@@UAEHXZ 0041b4e8     mfc110:mfc110.dll
 0002:000004ec       __imp_?OnGesturePressAndTap@CWnd@@MAEHVCPoint@@J@Z 0041b4ec     mfc110:mfc110.dll
 0002:000004f0       __imp_?OnGestureTwoFingerTap@CWnd@@MAEHVCPoint@@@Z 0041b4f0     mfc110:mfc110.dll
 0002:000004f4       __imp_?OnGestureRotate@CWnd@@MAEHVCPoint@@N@Z 0041b4f4     mfc110:mfc110.dll
 0002:000004f8       __imp_?OnGesturePan@CWnd@@MAEHVCPoint@@0@Z 0041b4f8     mfc110:mfc110.dll
 0002:000004fc       __imp_?GetRuntimeClass@CRgn@@UBEPAUCRuntimeClass@@XZ 0041b4fc     mfc110:mfc110.dll
 0002:00000500       __imp_?GetGestureStatus@CWnd@@MAEKVCPoint@@@Z 0041b500     mfc110:mfc110.dll
 0002:00000504       __imp_?OnTouchInput@CWnd@@MAEHVCPoint@@HHPAUtagTOUCHINPUT@@@Z 0041b504     mfc110:mfc110.dll
 0002:00000508       __imp_?OnTouchInputs@CWnd@@MAEHIPAUtagTOUCHINPUT@@@Z 0041b508     mfc110:mfc110.dll
 0002:0000050c       __imp_?OnChildNotify@CWnd@@MAEHIIJPAJ@Z 0041b50c     mfc110:mfc110.dll
 0002:00000510       __imp_?PostNcDestroy@CWnd@@MAEXXZ 0041b510     mfc110:mfc110.dll
 0002:00000514       __imp_?DefWindowProcA@CWnd@@MAEJIIJ@Z 0041b514     mfc110:mfc110.dll
 0002:00000518       __imp_?OnWndMsg@CWnd@@MAEHIIJPAJ@Z 0041b518     mfc110:mfc110.dll
 0002:0000051c       __imp_?WindowProc@CWnd@@MAEJIIJ@Z 0041b51c     mfc110:mfc110.dll
 0002:00000520       __imp_?OnAmbientProperty@CWnd@@UAEHPAVCOleControlSite@@JPAUtagVARIANT@@@Z 0041b520     mfc110:mfc110.dll
 0002:00000524       __imp_?OnCtlColor@CDialogEx@@IAEPAUHBRUSH__@@PAVCDC@@PAVCWnd@@I@Z 0041b524     mfc110:mfc110.dll
 0002:00000528       __imp_?Attach@CGdiObject@@QAEHPAX@Z 0041b528     mfc110:mfc110.dll
 0002:0000052c       __imp_?SetWindowPos@CWnd@@QAEHPBV1@HHHHI@Z 0041b52c     mfc110:mfc110.dll
 0002:00000530       __imp_?GetRuntimeClass@CFont@@UBEPAUCRuntimeClass@@XZ 0041b530     mfc110:mfc110.dll
 0002:00000534       __imp_??4?$CStringT@DV?$StrTraitMFC_DLL@DV?$ChTraitsCRT@D@ATL@@@@@ATL@@QAEAAV01@PB_W@Z 0041b534     mfc110:mfc110.dll
 0002:00000538       __imp_?Append@?$CSimpleStringT@D$00@ATL@@QAEXABV12@@Z 0041b538     mfc110:mfc110.dll
 0002:0000053c       __imp_?GetWindowTextA@CWnd@@QBEXAAV?$CStringT@DV?$StrTraitMFC_DLL@DV?$ChTraitsCRT@D@ATL@@@@@ATL@@@Z 0041b53c     mfc110:mfc110.dll
 0002:00000540       __imp_?LoadAppLangResourceDLL@CWinApp@@UAEPAUHINSTANCE__@@XZ 0041b540     mfc110:mfc110.dll
 0002:00000544       __imp_?EnableWindow@CWnd@@QAEHH@Z 0041b544     mfc110:mfc110.dll
 0002:00000548       __imp_?SetFocus@CWnd@@QAEPAV1@XZ 0041b548     mfc110:mfc110.dll
 0002:0000054c       __imp_?AfxBeginThread@@YGPAVCWinThread@@P6AIPAX@Z0HIKPAU_SECURITY_ATTRIBUTES@@@Z 0041b54c     mfc110:mfc110.dll
 0002:00000550       __imp_?FromHandle@CWnd@@SGPAV1@PAUHWND__@@@Z 0041b550     mfc110:mfc110.dll
 0002:00000554       __imp_?SetWindowTextA@CWnd@@QAEXPBD@Z 0041b554     mfc110:mfc110.dll
 0002:00000558       __imp_?GetDlgItem@CWnd@@QBEPAV1@H@Z 0041b558     mfc110:mfc110.dll
 0002:0000055c       __imp_?OnPaint@CDialog@@IAEXXZ 0041b55c     mfc110:mfc110.dll
 0002:00000560       __imp_??1CPaintDC@@UAE@XZ  0041b560     mfc110:mfc110.dll
 0002:00000564       __imp_??0CPaintDC@@QAE@PAVCWnd@@@Z 0041b564     mfc110:mfc110.dll
 0002:00000568       __imp_??4?$CStringT@DV?$StrTraitMFC_DLL@DV?$ChTraitsCRT@D@ATL@@@@@ATL@@QAEAAV01@PBD@Z 0041b568     mfc110:mfc110.dll
 0002:0000056c       __imp_?IsEmpty@?$CSimpleStringT@D$00@ATL@@QBE_NXZ 0041b56c     mfc110:mfc110.dll
 0002:00000570       __imp_?LoadStringA@?$CStringT@DV?$StrTraitMFC_DLL@DV?$ChTraitsCRT@D@ATL@@@@@ATL@@QAEHI@Z 0041b570     mfc110:mfc110.dll
 0002:00000574       __imp_?FromHandle@CMenu@@SGPAV1@PAUHMENU__@@@Z 0041b574     mfc110:mfc110.dll
 0002:00000578       __imp_?AfxGetModuleState@@YGPAVAFX_MODULE_STATE@@XZ 0041b578     mfc110:mfc110.dll
 0002:0000057c       __imp_?PreTranslateMessage@CDialogEx@@UAEHPAUtagMSG@@@Z 0041b57c     mfc110:mfc110.dll
 0002:00000580       __imp_?GetSuperWndProcAddr@CWnd@@MAEPAP6GJPAUHWND__@@IIJ@ZXZ 0041b580     mfc110:mfc110.dll
 0002:00000584       __imp_?OnNotify@CWnd@@MAEHIJPAJ@Z 0041b584     mfc110:mfc110.dll
 0002:00000588       __imp_?OnCommand@CDialogEx@@MAEHIJ@Z 0041b588     mfc110:mfc110.dll
 0002:0000058c       __imp_?CreateAccessibleProxy@CWnd@@UAEJIJPAJ@Z 0041b58c     mfc110:mfc110.dll
 0002:00000590       __imp_?SetProxy@CWnd@@UAEJPAUIAccessibleProxy@@@Z 0041b590     mfc110:mfc110.dll
 0002:00000594       __imp_?put_accValue@CWnd@@UAEJUtagVARIANT@@PA_W@Z 0041b594     mfc110:mfc110.dll
 0002:00000598       __imp_?put_accName@CWnd@@UAEJUtagVARIANT@@PA_W@Z 0041b598     mfc110:mfc110.dll
 0002:0000059c       __imp_?accDoDefaultAction@CWnd@@UAEJUtagVARIANT@@@Z 0041b59c     mfc110:mfc110.dll
 0002:000005a0       __imp_?accHitTest@CWnd@@UAEJJJPAUtagVARIANT@@@Z 0041b5a0     mfc110:mfc110.dll
 0002:000005a4       __imp_?AfxFindResourceHandle@@YGPAUHINSTANCE__@@PBD0@Z 0041b5a4     mfc110:mfc110.dll
 0002:000005a8       __imp_??1CStatic@@UAE@XZ   0041b5a8     mfc110:mfc110.dll
 0002:000005ac       __imp_?accNavigate@CWnd@@UAEJJUtagVARIANT@@PAU2@@Z 0041b5ac     mfc110:mfc110.dll
 0002:000005b0       __imp_?accLocation@CWnd@@UAEJPAJ000UtagVARIANT@@@Z 0041b5b0     mfc110:mfc110.dll
 0002:000005b4       __imp_?GetRuntimeClass@CStatic@@UBEPAUCRuntimeClass@@XZ 0041b5b4     mfc110:mfc110.dll
 0002:000005b8       __imp_?GetMessageMap@CWnd@@MBEPBUAFX_MSGMAP@@XZ 0041b5b8     mfc110:mfc110.dll
 0002:000005bc       __imp_??2@YAPAXI@Z         0041b5bc     mfc110:mfc110.dll
 0002:000005c0       __imp_??_U@YAPAXI@Z        0041b5c0     mfc110:mfc110.dll
 0002:000005c4       __imp_??_V@YAXPAX@Z        0041b5c4     mfc110:mfc110.dll
 0002:000005c8       __imp_?GetThisClass@CDialogEx@@SGPAUCRuntimeClass@@XZ 0041b5c8     mfc110:mfc110.dll
 0002:000005cc       __imp_?AfxWinMain@@YGHPAUHINSTANCE__@@0PADH@Z 0041b5cc     mfc110:mfc110.dll
 0002:000005d0       __imp_?OnChildNotify@CStatic@@MAEHIIJPAJ@Z 0041b5d0     mfc110:mfc110.dll
 0002:000005d4       __imp_?Create@CStatic@@UAEHPBDKABUtagRECT@@PAVCWnd@@I@Z 0041b5d4     mfc110:mfc110.dll
 0002:000005d8       __imp_?DrawItem@CStatic@@UAEXPAUtagDRAWITEMSTRUCT@@@Z 0041b5d8     mfc110:mfc110.dll
 0002:000005dc       __imp_?SetDlgItemTextA@CWnd@@QAEXHPBD@Z 0041b5dc     mfc110:mfc110.dll
 0002:000005e0       __imp_?Default@CWnd@@IAEJXZ 0041b5e0     mfc110:mfc110.dll
 0002:000005e4       __imp_??1CEvent@@UAE@XZ    0041b5e4     mfc110:mfc110.dll
 0002:000005e8       __imp_??0CEvent@@QAE@HHPBDPAU_SECURITY_ATTRIBUTES@@@Z 0041b5e8     mfc110:mfc110.dll
 0002:000005ec       __imp_?accSelect@CWnd@@UAEJJUtagVARIANT@@@Z 0041b5ec     mfc110:mfc110.dll
 0002:000005f0       __imp_?get_accDefaultAction@CWnd@@UAEJUtagVARIANT@@PAPA_W@Z 0041b5f0     mfc110:mfc110.dll
 0002:000005f4       __imp_?get_accSelection@CWnd@@UAEJPAUtagVARIANT@@@Z 0041b5f4     mfc110:mfc110.dll
 0002:000005f8       __imp_?get_accFocus@CWnd@@UAEJPAUtagVARIANT@@@Z 0041b5f8     mfc110:mfc110.dll
 0002:000005fc       __imp_?get_accKeyboardShortcut@CWnd@@UAEJUtagVARIANT@@PAPA_W@Z 0041b5fc     mfc110:mfc110.dll
 0002:00000600       __imp_?get_accHelpTopic@CWnd@@UAEJPAPA_WUtagVARIANT@@PAJ@Z 0041b600     mfc110:mfc110.dll
 0002:00000604       __imp_?get_accHelp@CWnd@@UAEJUtagVARIANT@@PAPA_W@Z 0041b604     mfc110:mfc110.dll
 0002:00000608       __imp_?get_accState@CWnd@@UAEJUtagVARIANT@@PAU2@@Z 0041b608     mfc110:mfc110.dll
 0002:0000060c       __imp_?get_accRole@CWnd@@UAEJUtagVARIANT@@PAU2@@Z 0041b60c     mfc110:mfc110.dll
 0002:00000610       __imp_?get_accDescription@CWnd@@UAEJUtagVARIANT@@PAPA_W@Z 0041b610     mfc110:mfc110.dll
 0002:00000614       __imp_?get_accValue@CWnd@@UAEJUtagVARIANT@@PAPA_W@Z 0041b614     mfc110:mfc110.dll
 0002:00000618       __imp_?get_accName@CWnd@@UAEJUtagVARIANT@@PAPA_W@Z 0041b618     mfc110:mfc110.dll
 0002:0000061c       __imp_?get_accChild@CWnd@@UAEJUtagVARIANT@@PAPAUIDispatch@@@Z 0041b61c     mfc110:mfc110.dll
 0002:00000620       __imp_?get_accChildCount@CWnd@@UAEJPAJ@Z 0041b620     mfc110:mfc110.dll
 0002:00000624       __imp_?get_accParent@CWnd@@UAEJPAPAUIDispatch@@@Z 0041b624     mfc110:mfc110.dll
 0002:00000628       __imp_?EnsureStdObj@CWnd@@UAEJXZ 0041b628     mfc110:mfc110.dll
 0002:0000062c       __imp_?OnDrawIconicThumbnailOrLivePreview@CWnd@@UAEXAAVCDC@@VCRect@@VCSize@@HAAH@Z 0041b62c     mfc110:mfc110.dll
 0002:00000630       __imp_?EndModalLoop@CWnd@@UAEXH@Z 0041b630     mfc110:mfc110.dll
 0002:00000634       __imp_?ContinueModal@CWnd@@UAEHXZ 0041b634     mfc110:mfc110.dll
 0002:00000638       __imp_?WinHelpInternal@CWnd@@UAEXKI@Z 0041b638     mfc110:mfc110.dll
 0002:0000063c       __imp_?HtmlHelpA@CWnd@@UAEXKI@Z 0041b63c     mfc110:mfc110.dll
 0002:00000640       __imp_?WinHelpA@CWnd@@UAEXKI@Z 0041b640     mfc110:mfc110.dll
 0002:00000644       __imp_?GetScrollBarCtrl@CWnd@@UBEPAVCScrollBar@@H@Z 0041b644     mfc110:mfc110.dll
 0002:00000648       __imp_?OnToolHitTest@CWnd@@UBEHVCPoint@@PAUtagTOOLINFOA@@@Z 0041b648     mfc110:mfc110.dll
 0002:0000064c       __imp_?SetMenu@CWnd@@UAEHPAVCMenu@@@Z 0041b64c     mfc110:mfc110.dll
 0002:00000650       __imp_?GetMenu@CWnd@@UBEPAVCMenu@@XZ 0041b650     mfc110:mfc110.dll
 0002:00000654       __imp_?CalcWindowRect@CWnd@@UAEXPAUtagRECT@@I@Z 0041b654     mfc110:mfc110.dll
 0002:00000658       __imp_?PreCreateWindow@CWnd@@UAEHAAUtagCREATESTRUCTA@@@Z 0041b658     mfc110:mfc110.dll
 0002:0000065c       __imp_?DestroyWindow@CWnd@@UAEHXZ 0041b65c     mfc110:mfc110.dll
 0002:00000660       __imp_?CreateEx@CWnd@@UAEHKPBD0KHHHHPAUHWND__@@PAUHMENU__@@PAX@Z 0041b660     mfc110:mfc110.dll
 0002:00000664       __imp_?CreateEx@CWnd@@UAEHKPBD0KABUtagRECT@@PAV1@IPAX@Z 0041b664     mfc110:mfc110.dll
 0002:00000668       __imp_?Create@CWnd@@UAEHPBD0KABUtagRECT@@PAV1@IPAUCCreateContext@@@Z 0041b668     mfc110:mfc110.dll
 0002:0000066c       __imp_?PreSubclassWindow@CWnd@@UAEXXZ 0041b66c     mfc110:mfc110.dll
 0002:00000670       __imp_?GetConnectionHook@CCmdTarget@@MAEPAUIConnectionPoint@@ABU_GUID@@@Z 0041b670     mfc110:mfc110.dll
 0002:00000674       __imp_?GetExtraConnectionPoints@CCmdTarget@@MAEHPAVCPtrArray@@@Z 0041b674     mfc110:mfc110.dll
 0002:00000678       __imp_?GetInterfaceHook@CCmdTarget@@UAEPAUIUnknown@@PBX@Z 0041b678     mfc110:mfc110.dll
 0002:0000067c       __imp_?OnCreateAggregates@CCmdTarget@@UAEHXZ 0041b67c     mfc110:mfc110.dll
 0002:00000680       __imp_?GetEventSinkMap@CCmdTarget@@MBEPBUAFX_EVENTSINKMAP@@XZ 0041b680     mfc110:mfc110.dll
 0002:00000684       __imp_?GetInterfaceMap@CWnd@@MBEPBUAFX_INTERFACEMAP@@XZ 0041b684     mfc110:mfc110.dll
 0002:00000688       __imp_?GetConnectionMap@CCmdTarget@@MBEPBUAFX_CONNECTIONMAP@@XZ 0041b688     mfc110:mfc110.dll
 0002:0000068c       __imp_?GetDispatchMap@CCmdTarget@@MBEPBUAFX_DISPMAP@@XZ 0041b68c     mfc110:mfc110.dll
 0002:00000690       __imp_?GetCommandMap@CCmdTarget@@MBEPBUAFX_OLECMDMAP@@XZ 0041b690     mfc110:mfc110.dll
 0002:00000694       __imp_?GetTypeLib@CCmdTarget@@UAEJKPAPAUITypeLib@@@Z 0041b694     mfc110:mfc110.dll
 0002:00000698       __imp_?GetTypeLibCache@CCmdTarget@@UAEPAVCTypeLibCache@@XZ 0041b698     mfc110:mfc110.dll
 0002:0000069c       __imp_?GetTypeInfoCount@CCmdTarget@@UAEIXZ 0041b69c     mfc110:mfc110.dll
 0002:000006a0       __imp_?GetDispatchIID@CCmdTarget@@UAEHPAU_GUID@@@Z 0041b6a0     mfc110:mfc110.dll
 0002:000006a4       __imp_?IsInvokeAllowed@CCmdTarget@@UAEHJ@Z 0041b6a4     mfc110:mfc110.dll
 0002:000006a8       __imp_?OnFinalRelease@CWnd@@UAEXXZ 0041b6a8     mfc110:mfc110.dll
 0002:000006ac       __imp_?OnCmdMsg@CDialog@@UAEHIHPAXPAUAFX_CMDHANDLERINFO@@@Z 0041b6ac     mfc110:mfc110.dll
 0002:000006b0       __imp_?OnOK@CDialog@@MAEXXZ 0041b6b0     mfc110:mfc110.dll
 0002:000006b4       __imp_?Compare@?$CStringT@DV?$StrTraitMFC_DLL@DV?$ChTraitsCRT@D@ATL@@@@@ATL@@QBEHPBD@Z 0041b6b4     mfc110:mfc110.dll
 0002:000006b8       __imp_?GetDlgItemTextA@CWnd@@QBEHHAAV?$CStringT@DV?$StrTraitMFC_DLL@DV?$ChTraitsCRT@D@ATL@@@@@ATL@@@Z 0041b6b8     mfc110:mfc110.dll
 0002:000006bc       __imp_??0?$CStringT@DV?$StrTraitMFC_DLL@DV?$ChTraitsCRT@D@ATL@@@@@ATL@@QAE@PBD@Z 0041b6bc     mfc110:mfc110.dll
 0002:000006c0       __imp_??0?$CStringT@DV?$StrTraitMFC_DLL@DV?$ChTraitsCRT@D@ATL@@@@@ATL@@QAE@PAUIAtlStringMgr@1@@Z 0041b6c0     mfc110:mfc110.dll
 0002:000006c4       __imp_?GetManager@?$CStringT@DV?$StrTraitMFC_DLL@DV?$ChTraitsCRT@D@ATL@@@@@ATL@@QBEPAUIAtlStringMgr@2@XZ 0041b6c4     mfc110:mfc110.dll
 0002:000006c8       __imp_?Concatenate@?$CSimpleStringT@D$00@ATL@@KAXAAV12@PBDH1H@Z 0041b6c8     mfc110:mfc110.dll
 0002:000006cc       __imp_?StringLength@?$CSimpleStringT@D$00@ATL@@SAHPBD@Z 0041b6cc     mfc110:mfc110.dll
 0002:000006d0       __imp_??0?$CStringT@DV?$StrTraitMFC_DLL@DV?$ChTraitsCRT@D@ATL@@@@@ATL@@QAE@ABV01@@Z 0041b6d0     mfc110:mfc110.dll
 0002:000006d4       __imp_?GetLength@?$CSimpleStringT@D$00@ATL@@QBEHXZ 0041b6d4     mfc110:mfc110.dll
 0002:000006d8       __imp_??4?$CStringT@DV?$StrTraitMFC_DLL@DV?$ChTraitsCRT@D@ATL@@@@@ATL@@QAEAAV01@ABV01@@Z 0041b6d8     mfc110:mfc110.dll
 0002:000006dc       __imp_?ReleaseBuffer@?$CSimpleStringT@D$00@ATL@@QAEXH@Z 0041b6dc     mfc110:mfc110.dll
 0002:000006e0       __imp_?GetBuffer@?$CSimpleStringT@D$00@ATL@@QAEPADH@Z 0041b6e0     mfc110:mfc110.dll
 0002:000006e4       __imp_?GetBufferSetLength@?$CSimpleStringT@D$00@ATL@@QAEPADH@Z 0041b6e4     mfc110:mfc110.dll
 0002:000006e8       __imp_?GetThisMessageMap@CDialogEx@@KGPBUAFX_MSGMAP@@XZ 0041b6e8     mfc110:mfc110.dll
 0002:000006ec       __imp_??1CDialogImpl@@MAE@XZ 0041b6ec     mfc110:mfc110.dll
 0002:000006f0       __imp_?GetRuntimeClass@CBrush@@UBEPAUCRuntimeClass@@XZ 0041b6f0     mfc110:mfc110.dll
 0002:000006f4       __imp_?GetRuntimeClass@CGdiObject@@UBEPAUCRuntimeClass@@XZ 0041b6f4     mfc110:mfc110.dll
 0002:000006f8       __imp_?DeleteObject@CGdiObject@@QAEHXZ 0041b6f8     mfc110:mfc110.dll
 0002:000006fc       __imp_??0?$CStringT@DV?$StrTraitMFC_DLL@DV?$ChTraitsCRT@D@ATL@@@@@ATL@@QAE@XZ 0041b6fc     mfc110:mfc110.dll
 0002:00000700       __imp_??1?$CStringT@DV?$StrTraitMFC_DLL@DV?$ChTraitsCRT@D@ATL@@@@@ATL@@QAE@XZ 0041b700     mfc110:mfc110.dll
 0002:00000704       __imp_?Format@?$CStringT@DV?$StrTraitMFC_DLL@DV?$ChTraitsCRT@D@ATL@@@@@ATL@@QAAXPBDZZ 0041b704     mfc110:mfc110.dll
 0002:00000708       __imp_?AfxMessageBox@@YGHPBDII@Z 0041b708     mfc110:mfc110.dll
 0002:0000070c       __imp_??B?$CSimpleStringT@D$00@ATL@@QBEPBDXZ 0041b70c     mfc110:mfc110.dll
 0002:00000710       __imp_??1CDialog@@UAE@XZ   0041b710     mfc110:mfc110.dll
 0002:00000714       __imp_??0CDialogEx@@QAE@IPAVCWnd@@@Z 0041b714     mfc110:mfc110.dll
 0002:00000718       __imp_?LoadSysPolicies@CWinApp@@UAEHXZ 0041b718     mfc110:mfc110.dll
 0002:0000071c       __imp_?OnGestureZoom@CWnd@@MAEHVCPoint@@J@Z 0041b71c     mfc110:mfc110.dll
 0002:00000720       __imp_??3@YAXPAX@Z         0041b720     mfc110:mfc110.dll
 0002:00000724       \177mfc110_NULL_THUNK_DATA 0041b724     mfc110:mfc110.dll
 0002:00000728       __imp__CoUninitialize@0    0041b728     ole32:ole32.dll
 0002:0000072c       __imp__CoInitialize@4      0041b72c     ole32:ole32.dll
 0002:00000730       __imp__CoTaskMemFree@4     0041b730     ole32:ole32.dll
 0002:00000734       __imp__CoCreateInstance@20 0041b734     ole32:ole32.dll
 0002:00000738       \177ole32_NULL_THUNK_DATA  0041b738     ole32:ole32.dll
 0002:0000073c       __imp_?deallocate@Mat@cv@@QAEXXZ 0041b73c     opencv_core320:opencv_core320.dll
 0002:00000740       __imp_?copyTo@Mat@cv@@QBEXABV_OutputArray@2@@Z 0041b740     opencv_core320:opencv_core320.dll
 0002:00000744       __imp_?fastFree@cv@@YAXPAX@Z 0041b744     opencv_core320:opencv_core320.dll
 0002:00000748       __imp_?create@Mat@cv@@QAEXHPBHH@Z 0041b748     opencv_core320:opencv_core320.dll
 0002:0000074c       __imp_?flip@cv@@YAXABV_InputArray@1@ABV_OutputArray@1@H@Z 0041b74c     opencv_core320:opencv_core320.dll
 0002:00000750       __imp_??0Mat@cv@@QAE@ABV01@ABV?$Rect_@H@1@@Z 0041b750     opencv_core320:opencv_core320.dll
 0002:00000754       __imp_?allocate@String@cv@@AAEPADI@Z 0041b754     opencv_core320:opencv_core320.dll
 0002:00000758       __imp_?deallocate@String@cv@@AAEXXZ 0041b758     opencv_core320:opencv_core320.dll
 0002:0000075c       __imp_?error@cv@@YAXHABVString@1@PBD1H@Z 0041b75c     opencv_core320:opencv_core320.dll
 0002:00000760       __imp_??4Mat@cv@@QAEAAV01@ABV?$Scalar_@N@1@@Z 0041b760     opencv_core320:opencv_core320.dll
 0002:00000764       \177opencv_core320_NULL_THUNK_DATA 0041b764     opencv_core320:opencv_core320.dll
 0002:00000768       __imp__cvGetWindowHandle   0041b768     opencv_highgui320:opencv_highgui320.dll
 0002:0000076c       __imp_?imshow@cv@@YAXABVString@1@ABV_InputArray@1@@Z 0041b76c     opencv_highgui320:opencv_highgui320.dll
 0002:00000770       __imp_?namedWindow@cv@@YAXABVString@1@H@Z 0041b770     opencv_highgui320:opencv_highgui320.dll
 0002:00000774       __imp_?resizeWindow@cv@@YAXABVString@1@HH@Z 0041b774     opencv_highgui320:opencv_highgui320.dll
 0002:00000778       __imp_?waitKey@cv@@YAHH@Z  0041b778     opencv_highgui320:opencv_highgui320.dll
 0002:0000077c       \177opencv_highgui320_NULL_THUNK_DATA 0041b77c     opencv_highgui320:opencv_highgui320.dll
 0002:00000780       __imp_?imwrite@cv@@YA_NABVString@1@ABV_InputArray@1@ABV?$vector@HV?$allocator@H@std@@@std@@@Z 0041b780     opencv_imgcodecs320:opencv_imgcodecs320.dll
 0002:00000784       \177opencv_imgcodecs320_NULL_THUNK_DATA 0041b784     opencv_imgcodecs320:opencv_imgcodecs320.dll
 0002:00000788       __imp_?blur@cv@@YAXABV_InputArray@1@ABV_OutputArray@1@V?$Size_@H@1@V?$Point_@H@1@H@Z 0041b788     opencv_imgproc320:opencv_imgproc320.dll
 0002:0000078c       __imp_?resize@cv@@YAXABV_InputArray@1@ABV_OutputArray@1@V?$Size_@H@1@NNH@Z 0041b78c     opencv_imgproc320:opencv_imgproc320.dll
 0002:00000790       \177opencv_imgproc320_NULL_THUNK_DATA 0041b790     opencv_imgproc320:opencv_imgproc320.dll
 0002:00000794       __imp_??1VideoWriter@cv@@UAE@XZ 0041b794     opencv_videoio320:opencv_videoio320.dll
 0002:00000798       __imp_??0VideoWriter@cv@@QAE@XZ 0041b798     opencv_videoio320:opencv_videoio320.dll
 0002:0000079c       __imp_?fourcc@VideoWriter@cv@@SAHDDDD@Z 0041b79c     opencv_videoio320:opencv_videoio320.dll
 0002:000007a0       \177opencv_videoio320_NULL_THUNK_DATA 0041b7a0     opencv_videoio320:opencv_videoio320.dll
 0002:000007a4       ___xc_a                    0041b7a4     msvcrt:cinitexe.obj
 0002:00000820       ___xc_z                    0041b820     msvcrt:cinitexe.obj
 0002:00000824       ___xi_a                    0041b824     msvcrt:cinitexe.obj
 0002:00000834       ___xi_z                    0041b834     msvcrt:cinitexe.obj
 0002:0000087c       ??_7type_info@@6B@         0041b87c     msvcrt:ti_inst.obj
 0002:00000888       _IID_IUnknown              0041b888     uuid:unknwn_i.obj
 0002:00000898       _IID_IPropertyBag          0041b898     uuid:oaidl_i.obj
 0002:000008a8       _IID_ISampleGrabberCB      0041b8a8     strmiids:strmiids.obj
 0002:000008b8       _CLSID_SampleGrabber       0041b8b8     strmiids:strmiids.obj
 0002:000008c8       _CLSID_NullRenderer        0041b8c8     strmiids:strmiids.obj
 0002:000008d8       _IID_ICreateDevEnum        0041b8d8     strmiids:strmiids.obj
 0002:000008e8       _IID_IBaseFilter           0041b8e8     strmiids:strmiids.obj
 0002:000008f8       _IID_IGraphBuilder         0041b8f8     strmiids:strmiids.obj
 0002:00000908       _IID_ICaptureGraphBuilder2 0041b908     strmiids:strmiids.obj
 0002:00000918       _IID_IMediaControl         0041b918     strmiids:strmiids.obj
 0002:00000928       _IID_IMediaEvent           0041b928     strmiids:strmiids.obj
 0002:00000938       _IID_IVideoWindow          0041b938     strmiids:strmiids.obj
 0002:00001870       ??_C@_07DCLBNMLN@generic?$AA@ 0041c870     CEDSGrabberCB.obj
 0002:0000187c       ??_7_Generic_error_category@std@@6B@ 0041c87c     CEDSGrabberCB.obj
 0002:00001898       ??_7error_category@std@@6B@ 0041c898     CEDSGrabberCB.obj
 0002:000018b0       ??_C@_08LLGCOLLL@iostream?$AA@ 0041c8b0     CEDSGrabberCB.obj
 0002:000018bc       ??_C@_0BG@PADBLCHM@iostream?5stream?5error?$AA@ 0041c8bc     CEDSGrabberCB.obj
 0002:000018d4       ??_C@_0O@BFJCFAAK@unknown?5error?$AA@ 0041c8d4     CEDSGrabberCB.obj
 0002:000018e8       ??_7_Iostream_error_category@std@@6B@ 0041c8e8     CEDSGrabberCB.obj
 0002:00001900       ??_C@_0BI@CFPLBAOH@invalid?5string?5position?$AA@ 0041c900     CEDSGrabberCB.obj
 0002:00001918       ??_C@_0BA@JFNIOLAK@string?5too?5long?$AA@ 0041c918     CEDSGrabberCB.obj
 0002:0000192c       ??_7CEDSGrabberCB@@6B@     0041c92c     CEDSGrabberCB.obj
 0002:0000197c       ??_7CBrush@@6B@            0041c97c     CSetPSW.obj
 0002:00001994       ??_7CGdiObject@@6B@        0041c994     CSetPSW.obj
 0002:000019a8       ??_C@_0O@KHJMBFME@?$CFs?5?$CI?$CFs?3?$CFd?$CJ?6?$CFs?$AA@ 0041c9a8     CSetPSW.obj
 0002:000019b8       ??_C@_0FC@NFDKDJOO@C?3?2Program?5Files?5?$CIx86?$CJ?2Microsoft@ 0041c9b8     CSetPSW.obj
 0002:00001a0c       ??_C@_0BP@OIEOKIDM@Exception?5thrown?5in?5destructor?$AA@ 0041ca0c     CSetPSW.obj
 0002:00001a2c       ??_C@_0L@LBHJMCDF@?$CFs?5?$CI?$CFs?3?$CFd?$CJ?$AA@ 0041ca2c     CSetPSW.obj
 0002:00001a3c       ??_7CSetPSW@@6B@           0041ca3c     CSetPSW.obj
 0002:00001bcc       ?classCSetPSW@CSetPSW@@2UCRuntimeClass@@B 0041cbcc     CSetPSW.obj
 0002:00001be8       ??_C@_0BM@PAPJHAGI@invalid?5map?1set?$DMT?$DO?5iterator?$AA@ 0041cbe8     DataType.obj
 0002:00001c04       ??_C@_0BC@KBDMBKEH@deque?$DMT?$DO?5too?5long?$AA@ 0041cc04     DataType.obj
 0002:00001c18       __GUID_6b652fff_11fe_4fce_92ad_0266b5d7c78f 0041cc18     EDSCapture.obj
 0002:00001c4c       ??_7CEDSCapture@@6B@       0041cc4c     EDSCapture.obj
 0002:00001db4       ?classCEDSCapture@CEDSCapture@@2UCRuntimeClass@@B 0041cdb4     EDSCapture.obj
 0002:00001dd0       _CLSID_CaptureGraphBuilder2 0041cdd0     EndoScopeMFC.obj
 0002:00001de0       _CLSID_FilterGraph         0041cde0     EndoScopeMFC.obj
 0002:00001df0       _CLSID_VideoInputDeviceCategory 0041cdf0     EndoScopeMFC.obj
 0002:00001e00       _CLSID_SystemDeviceEnum    0041ce00     EndoScopeMFC.obj
 0002:00001e10       _PIN_CATEGORY_CAPTURE      0041ce10     EndoScopeMFC.obj
 0002:00001e20       _MEDIASUBTYPE_RGB24        0041ce20     EndoScopeMFC.obj
 0002:00001e30       _MEDIATYPE_Video           0041ce30     EndoScopeMFC.obj
 0002:00001e44       ??_7CEndoScopeMFCApp@@6B@  0041ce44     EndoScopeMFC.obj
 0002:00001f98       ??_C@_0HG@IBLADDKO@E?3?2work_wm?2endoscopemfc2012_menu@ 0041cf98     EndoScopeMFCDlg.obj
 0002:00002010       ??_C@_0N@DDCCIDDE@cv?3?3Mat?3?3Mat?$AA@ 0041d010     EndoScopeMFCDlg.obj
 0002:00002020       ??_C@_0BN@EEFOKAEN@total?$CI?$CJ?5?$DN?$DN?50?5?$HM?$HM?5data?5?$CB?$DN?5NULL?$AA@ 0041d020     EndoScopeMFCDlg.obj
 0002:00002040       ??_C@_0CA@LBFJDOIG@Step?5must?5be?5a?5multiple?5of?5esz1?$AA@ 0041d040     EndoScopeMFCDlg.obj
 0002:00002060       ??_C@_0BB@MOGOBHAF@list?$DMT?$DO?5too?5long?$AA@ 0041d060     EndoScopeMFCDlg.obj
 0002:00002078       ??_7?$basic_ifstream@DU?$char_traits@D@std@@@std@@6B@ 0041d078     EndoScopeMFCDlg.obj
 0002:00002084       ??_8?$basic_ifstream@DU?$char_traits@D@std@@@std@@7B@ 0041d084     EndoScopeMFCDlg.obj
 0002:0000208c       ?npos@?$basic_string@DU?$char_traits@D@std@@V?$allocator@D@2@@std@@2IB 0041d08c     EndoScopeMFCDlg.obj
 0002:00002094       ??_7?$basic_filebuf@DU?$char_traits@D@std@@@std@@6B@ 0041d094     EndoScopeMFCDlg.obj
 0002:000020d4       ??_7?$basic_ofstream@DU?$char_traits@D@std@@@std@@6B@ 0041d0d4     EndoScopeMFCDlg.obj
 0002:000020e0       ??_C@_08EPJLHIJG@bad?5cast?$AA@ 0041d0e0     EndoScopeMFCDlg.obj
 0002:000020ec       ??_8?$basic_ofstream@DU?$char_traits@D@std@@@std@@7B@ 0041d0ec     EndoScopeMFCDlg.obj
 0002:000020f8       ??_7CRgn@@6B@              0041d0f8     EndoScopeMFCDlg.obj
 0002:00002110       ??_7CFont@@6B@             0041d110     EndoScopeMFCDlg.obj
 0002:00002124       ?szInvalidDateTime@ATL@@3QBDB 0041d124     EndoScopeMFCDlg.obj
 0002:0000223c       ??_7CStatic@@6B@           0041d23c     EndoScopeMFCDlg.obj
 0002:000023b4       ??_7CEndoScopeMFCDlg@@6B@  0041d3b4     EndoScopeMFCDlg.obj
 0002:0000259c       ??_7CAboutDlg@@6B@         0041d59c     EndoScopeMFCDlg.obj
 0002:0000272c       ??_C@_00CNPNBAHC@?$AA@     0041d72c     EndoScopeMFCDlg.obj
 0002:00002734       ??_7CLightComIO@@6B@       0041d734     LightComIO.obj
 0002:0000278c       ??_7CEdit@@6B@             0041d78c     Login.obj
 0002:000028fc       ??_7Login@@6B@             0041d8fc     Login.obj
 0002:00002a8c       ?classLogin@Login@@2UCRuntimeClass@@B 0041da8c     Login.obj
 0002:00002aac       ??_7_System_error_category@std@@6B@ 0041daac     pch.obj
 0002:00002ac4       ??_C@_06FHFOAHML@system?$AA@ 0041dac4     pch.obj
 0002:00002ad0       ??_7CComDataHandler@@6B@   0041dad0     PLC.obj
 0002:00002ad8       ??_7CPLC@@6B@              0041dad8     PLC.obj
 0002:00002ae4       ??_7CVideoComIO@@6B@       0041dae4     VideoComIO.obj
 0002:00002ae8       __real@0000000000000000    0041dae8     CEDSGrabberCB.obj
 0002:00002af0       __real@3ff0000000000000    0041daf0     CEDSGrabberCB.obj
 0002:00002af8       __real@3ff3333333333333    0041daf8     CEDSGrabberCB.obj
 0002:00002b00       __real@3ff8000000000000    0041db00     CEDSGrabberCB.obj
 0002:00002b08       __real@4000000000000000    0041db08     CEDSGrabberCB.obj
 0002:00002b10       __real@4024000000000000    0041db10     CEDSGrabberCB.obj
 0002:00002b18       __real@403e000000000000    0041db18     CEDSGrabberCB.obj
 0002:00002b20       __real@406fe00000000000    0041db20     CEDSGrabberCB.obj
 0002:00002b28       __real@4086800000000000    0041db28     CEDSGrabberCB.obj
 0002:00002b30       __real@4094000000000000    0041db30     CEDSGrabberCB.obj
 0002:00002b38       __real@4145180000000000    0041db38     CEDSGrabberCB.obj
 0002:00002b40       __xmm@41f00000000000000000000000000000 0041db40     CEDSGrabberCB.obj
 0002:00002b50       __load_config_used         0041db50     msvcrt:loadcfg.obj
 0002:00002c2c       ??_R4type_info@@6B@        0041dc2c     msvcrt:ti_inst.obj
 0002:00002c40       ??_R3type_info@@8          0041dc40     msvcrt:ti_inst.obj
 0002:00002c50       ??_R2type_info@@8          0041dc50     msvcrt:ti_inst.obj
 0002:00002c58       ??_R1A@?0A@EA@type_info@@8 0041dc58     msvcrt:ti_inst.obj
 0002:00002c74       ??_R2CEDSGrabberCB@@8      0041dc74     CEDSGrabberCB.obj
 0002:00002c84       ??_R2ISampleGrabberCB@@8   0041dc84     CEDSGrabberCB.obj
 0002:00002c90       ??_R1A@?0A@EA@CEDSGrabberCB@@8 0041dc90     CEDSGrabberCB.obj
 0002:00002cac       ??_R1A@?0A@EA@ISampleGrabberCB@@8 0041dcac     CEDSGrabberCB.obj
 0002:00002cc8       ??_R2IUnknown@@8           0041dcc8     CEDSGrabberCB.obj
 0002:00002cd0       ??_R3IUnknown@@8           0041dcd0     CEDSGrabberCB.obj
 0002:00002ce0       ??_R1A@?0A@EA@IUnknown@@8  0041dce0     CEDSGrabberCB.obj
 0002:00002cfc       ??_R3CEDSGrabberCB@@8      0041dcfc     CEDSGrabberCB.obj
 0002:00002d0c       ??_R3ISampleGrabberCB@@8   0041dd0c     CEDSGrabberCB.obj
 0002:00002d1c       ??_R4CEDSGrabberCB@@6B@    0041dd1c     CEDSGrabberCB.obj
 0002:00002d30       ??_R4_Generic_error_category@std@@6B@ 0041dd30     CEDSGrabberCB.obj
 0002:00002d44       ??_R4error_category@std@@6B@ 0041dd44     CEDSGrabberCB.obj
 0002:00002d58       ??_R1A@?0A@EA@_Iostream_error_category@std@@8 0041dd58     CEDSGrabberCB.obj
 0002:00002d74       ??_R2_Generic_error_category@std@@8 0041dd74     CEDSGrabberCB.obj
 0002:00002d80       ??_R3_Generic_error_category@std@@8 0041dd80     CEDSGrabberCB.obj
 0002:00002d90       ??_R1A@?0A@EA@_Generic_error_category@std@@8 0041dd90     CEDSGrabberCB.obj
 0002:00002dac       ??_R2error_category@std@@8 0041ddac     CEDSGrabberCB.obj
 0002:00002db4       ??_R3error_category@std@@8 0041ddb4     CEDSGrabberCB.obj
 0002:00002dc4       ??_R1A@?0A@EA@error_category@std@@8 0041ddc4     CEDSGrabberCB.obj
 0002:00002de0       ??_R2_Iostream_error_category@std@@8 0041dde0     CEDSGrabberCB.obj
 0002:00002df0       ??_R3_Iostream_error_category@std@@8 0041ddf0     CEDSGrabberCB.obj
 0002:00002e00       ??_R4_Iostream_error_category@std@@6B@ 0041de00     CEDSGrabberCB.obj
 0002:00002e14       ??_R2CSetPSW@@8            0041de14     CSetPSW.obj
 0002:00002e30       ??_R2CDialogEx@@8          0041de30     CSetPSW.obj
 0002:00002e48       ??_R1A@?0A@EA@CSetPSW@@8   0041de48     CSetPSW.obj
 0002:00002e64       ??_R2CWnd@@8               0041de64     CSetPSW.obj
 0002:00002e74       ??_R3CWnd@@8               0041de74     CSetPSW.obj
 0002:00002e84       ??_R1A@?0A@EA@CWnd@@8      0041de84     CSetPSW.obj
 0002:00002ea0       ??_R2CCmdTarget@@8         0041dea0     CSetPSW.obj
 0002:00002eac       ??_R3CCmdTarget@@8         0041deac     CSetPSW.obj
 0002:00002ebc       ??_R1A@?0A@EA@CCmdTarget@@8 0041debc     CSetPSW.obj
 0002:00002ed8       ??_R2CDialog@@8            0041ded8     CSetPSW.obj
 0002:00002eec       ??_R3CDialog@@8            0041deec     CSetPSW.obj
 0002:00002efc       ??_R1A@?0A@EA@CDialog@@8   0041defc     CSetPSW.obj
 0002:00002f18       ??_R1A@?0A@EA@CDialogEx@@8 0041df18     CSetPSW.obj
 0002:00002f34       ??_R3CDialogEx@@8          0041df34     CSetPSW.obj
 0002:00002f44       ??_R3CSetPSW@@8            0041df44     CSetPSW.obj
 0002:00002f54       ??_R4CSetPSW@@6B@          0041df54     CSetPSW.obj
 0002:00002f68       ??_R1A@?0A@EA@CBrush@@8    0041df68     CSetPSW.obj
 0002:00002f84       ??_R2CBrush@@8             0041df84     CSetPSW.obj
 0002:00002f94       ??_R3CBrush@@8             0041df94     CSetPSW.obj
 0002:00002fa4       ??_R4CBrush@@6B@           0041dfa4     CSetPSW.obj
 0002:00002fb8       ??_R1A@?0A@EA@CGdiObject@@8 0041dfb8     CSetPSW.obj
 0002:00002fd4       ??_R2CObject@@8            0041dfd4     CSetPSW.obj
 0002:00002fdc       ??_R3CObject@@8            0041dfdc     CSetPSW.obj
 0002:00002fec       ??_R1A@?0A@EA@CObject@@8   0041dfec     CSetPSW.obj
 0002:00003008       ??_R2CGdiObject@@8         0041e008     CSetPSW.obj
 0002:00003014       ??_R3CGdiObject@@8         0041e014     CSetPSW.obj
 0002:00003024       ??_R4CGdiObject@@6B@       0041e024     CSetPSW.obj
 0002:00003038       ??_R2CEDSCapture@@8        0041e038     EDSCapture.obj
 0002:0000304c       ??_R1A@?0A@EA@CEDSCapture@@8 0041e04c     EDSCapture.obj
 0002:00003068       ??_R3CEDSCapture@@8        0041e068     EDSCapture.obj
 0002:00003078       ??_R4CEDSCapture@@6B@      0041e078     EDSCapture.obj
 0002:0000308c       ??_R2CEndoScopeMFCApp@@8   0041e08c     EndoScopeMFC.obj
 0002:000030a4       ??_R2CWinApp@@8            0041e0a4     EndoScopeMFC.obj
 0002:000030b8       ??_R2CWinThread@@8         0041e0b8     EndoScopeMFC.obj
 0002:000030c8       ??_R1A@?0A@EA@CEndoScopeMFCApp@@8 0041e0c8     EndoScopeMFC.obj
 0002:000030e4       ??_R1A@?0A@EA@CWinApp@@8   0041e0e4     EndoScopeMFC.obj
 0002:00003100       ??_R1A@?0A@EA@CWinThread@@8 0041e100     EndoScopeMFC.obj
 0002:0000311c       ??_R3CWinApp@@8            0041e11c     EndoScopeMFC.obj
 0002:0000312c       ??_R3CWinThread@@8         0041e12c     EndoScopeMFC.obj
 0002:0000313c       ??_R3CEndoScopeMFCApp@@8   0041e13c     EndoScopeMFC.obj
 0002:0000314c       ??_R4CEndoScopeMFCApp@@6B@ 0041e14c     EndoScopeMFC.obj
 0002:00003160       ??_R2CEndoScopeMFCDlg@@8   0041e160     EndoScopeMFCDlg.obj
 0002:0000317c       ??_R2CAboutDlg@@8          0041e17c     EndoScopeMFCDlg.obj
 0002:00003198       ??_R2?$basic_ofstream@DU?$char_traits@D@std@@@std@@8 0041e198     EndoScopeMFCDlg.obj
 0002:000031b0       ??_R2?$basic_ostream@DU?$char_traits@D@std@@@std@@8 0041e1b0     EndoScopeMFCDlg.obj
 0002:000031c4       ??_R2?$basic_ifstream@DU?$char_traits@D@std@@@std@@8 0041e1c4     EndoScopeMFCDlg.obj
 0002:000031dc       ??_R2?$basic_istream@DU?$char_traits@D@std@@@std@@8 0041e1dc     EndoScopeMFCDlg.obj
 0002:000031f0       ??_R2?$basic_ios@DU?$char_traits@D@std@@@std@@8 0041e1f0     EndoScopeMFCDlg.obj
 0002:00003200       ??_R2?$basic_filebuf@DU?$char_traits@D@std@@@std@@8 0041e200     EndoScopeMFCDlg.obj
 0002:0000320c       ??_R2?$basic_streambuf@DU?$char_traits@D@std@@@std@@8 0041e20c     EndoScopeMFCDlg.obj
 0002:00003214       ??_R1A@?0A@EA@CEndoScopeMFCDlg@@8 0041e214     EndoScopeMFCDlg.obj
 0002:00003230       ??_R1A@?0A@EA@CAboutDlg@@8 0041e230     EndoScopeMFCDlg.obj
 0002:0000324c       ??_R1A@?0A@EA@?$basic_ofstream@DU?$char_traits@D@std@@@std@@8 0041e24c     EndoScopeMFCDlg.obj
 0002:00003268       ??_R1A@?0A@EA@?$basic_ostream@DU?$char_traits@D@std@@@std@@8 0041e268     EndoScopeMFCDlg.obj
 0002:00003284       ??_R1A@?0A@EA@?$basic_ifstream@DU?$char_traits@D@std@@@std@@8 0041e284     EndoScopeMFCDlg.obj
 0002:000032a0       ??_R17A@3EA@?$_Iosb@H@std@@8 0041e2a0     EndoScopeMFCDlg.obj
 0002:000032bc       ??_R1A@A@3EA@ios_base@std@@8 0041e2bc     EndoScopeMFCDlg.obj
 0002:000032d8       ??_R1A@A@3FA@?$basic_ios@DU?$char_traits@D@std@@@std@@8 0041e2d8     EndoScopeMFCDlg.obj
 0002:000032f4       ??_R1A@?0A@EA@?$basic_istream@DU?$char_traits@D@std@@@std@@8 0041e2f4     EndoScopeMFCDlg.obj
 0002:00003310       ??_R1A@?0A@EA@?$_Iosb@H@std@@8 0041e310     EndoScopeMFCDlg.obj
 0002:0000332c       ??_R2?$_Iosb@H@std@@8      0041e32c     EndoScopeMFCDlg.obj
 0002:00003334       ??_R3?$_Iosb@H@std@@8      0041e334     EndoScopeMFCDlg.obj
 0002:00003344       ??_R17?0A@EA@?$_Iosb@H@std@@8 0041e344     EndoScopeMFCDlg.obj
 0002:00003360       ??_R2ios_base@std@@8       0041e360     EndoScopeMFCDlg.obj
 0002:0000336c       ??_R3ios_base@std@@8       0041e36c     EndoScopeMFCDlg.obj
 0002:0000337c       ??_R1A@?0A@EA@ios_base@std@@8 0041e37c     EndoScopeMFCDlg.obj
 0002:00003398       ??_R1A@?0A@EA@?$basic_ios@DU?$char_traits@D@std@@@std@@8 0041e398     EndoScopeMFCDlg.obj
 0002:000033b4       ??_R1A@?0A@EA@?$basic_filebuf@DU?$char_traits@D@std@@@std@@8 0041e3b4     EndoScopeMFCDlg.obj
 0002:000033d0       ??_R1A@?0A@EA@?$basic_streambuf@DU?$char_traits@D@std@@@std@@8 0041e3d0     EndoScopeMFCDlg.obj
 0002:000033ec       ??_R3CEndoScopeMFCDlg@@8   0041e3ec     EndoScopeMFCDlg.obj
 0002:000033fc       ??_R3CAboutDlg@@8          0041e3fc     EndoScopeMFCDlg.obj
 0002:0000340c       ??_R3?$basic_ostream@DU?$char_traits@D@std@@@std@@8 0041e40c     EndoScopeMFCDlg.obj
 0002:0000341c       ??_R3?$basic_ofstream@DU?$char_traits@D@std@@@std@@8 0041e41c     EndoScopeMFCDlg.obj
 0002:0000342c       ??_R3?$basic_istream@DU?$char_traits@D@std@@@std@@8 0041e42c     EndoScopeMFCDlg.obj
 0002:0000343c       ??_R3?$basic_ios@DU?$char_traits@D@std@@@std@@8 0041e43c     EndoScopeMFCDlg.obj
 0002:0000344c       ??_R3?$basic_ifstream@DU?$char_traits@D@std@@@std@@8 0041e44c     EndoScopeMFCDlg.obj
 0002:0000345c       ??_R3?$basic_streambuf@DU?$char_traits@D@std@@@std@@8 0041e45c     EndoScopeMFCDlg.obj
 0002:0000346c       ??_R3?$basic_filebuf@DU?$char_traits@D@std@@@std@@8 0041e46c     EndoScopeMFCDlg.obj
 0002:0000347c       ??_R4CEndoScopeMFCDlg@@6B@ 0041e47c     EndoScopeMFCDlg.obj
 0002:00003490       ??_R4CAboutDlg@@6B@        0041e490     EndoScopeMFCDlg.obj
 0002:000034a4       ??_R4?$basic_ofstream@DU?$char_traits@D@std@@@std@@6B@ 0041e4a4     EndoScopeMFCDlg.obj
 0002:000034b8       ??_R4?$basic_ifstream@DU?$char_traits@D@std@@@std@@6B@ 0041e4b8     EndoScopeMFCDlg.obj
 0002:000034cc       ??_R4?$basic_filebuf@DU?$char_traits@D@std@@@std@@6B@ 0041e4cc     EndoScopeMFCDlg.obj
 0002:000034e0       ??_R1A@?0A@EA@CRgn@@8      0041e4e0     EndoScopeMFCDlg.obj
 0002:000034fc       ??_R2CRgn@@8               0041e4fc     EndoScopeMFCDlg.obj
 0002:0000350c       ??_R3CRgn@@8               0041e50c     EndoScopeMFCDlg.obj
 0002:0000351c       ??_R4CRgn@@6B@             0041e51c     EndoScopeMFCDlg.obj
 0002:00003530       ??_R1A@?0A@EA@CFont@@8     0041e530     EndoScopeMFCDlg.obj
 0002:0000354c       ??_R2CFont@@8              0041e54c     EndoScopeMFCDlg.obj
 0002:0000355c       ??_R3CFont@@8              0041e55c     EndoScopeMFCDlg.obj
 0002:0000356c       ??_R4CFont@@6B@            0041e56c     EndoScopeMFCDlg.obj
 0002:00003580       ??_R1A@?0A@EA@CStatic@@8   0041e580     EndoScopeMFCDlg.obj
 0002:0000359c       ??_R2CStatic@@8            0041e59c     EndoScopeMFCDlg.obj
 0002:000035b0       ??_R3CStatic@@8            0041e5b0     EndoScopeMFCDlg.obj
 0002:000035c0       ??_R4CStatic@@6B@          0041e5c0     EndoScopeMFCDlg.obj
 0002:000035d4       ??_R2CLightComIO@@8        0041e5d4     LightComIO.obj
 0002:000035dc       ??_R1A@?0A@EA@CLightComIO@@8 0041e5dc     LightComIO.obj
 0002:000035f8       ??_R3CLightComIO@@8        0041e5f8     LightComIO.obj
 0002:00003608       ??_R4CLightComIO@@6B@      0041e608     LightComIO.obj
 0002:0000361c       ??_R2Login@@8              0041e61c     Login.obj
 0002:00003638       ??_R1A@?0A@EA@Login@@8     0041e638     Login.obj
 0002:00003654       ??_R3Login@@8              0041e654     Login.obj
 0002:00003664       ??_R4Login@@6B@            0041e664     Login.obj
 0002:00003678       ??_R1A@?0A@EA@CEdit@@8     0041e678     Login.obj
 0002:00003694       ??_R2CEdit@@8              0041e694     Login.obj
 0002:000036a8       ??_R3CEdit@@8              0041e6a8     Login.obj
 0002:000036b8       ??_R4CEdit@@6B@            0041e6b8     Login.obj
 0002:000036cc       ??_R1A@?0A@EA@_System_error_category@std@@8 0041e6cc     pch.obj
 0002:000036e8       ??_R4_System_error_category@std@@6B@ 0041e6e8     pch.obj
 0002:000036fc       ??_R3_System_error_category@std@@8 0041e6fc     pch.obj
 0002:0000370c       ??_R2_System_error_category@std@@8 0041e70c     pch.obj
 0002:0000371c       ??_R2CPLC@@8               0041e71c     PLC.obj
 0002:00003728       ??_R2CComDataHandler@@8    0041e728     PLC.obj
 0002:00003730       ??_R1A@?0A@EA@CPLC@@8      0041e730     PLC.obj
 0002:0000374c       ??_R1A@?0A@EA@CComDataHandler@@8 0041e74c     PLC.obj
 0002:00003768       ??_R3CPLC@@8               0041e768     PLC.obj
 0002:00003778       ??_R3CComDataHandler@@8    0041e778     PLC.obj
 0002:00003788       ??_R4CPLC@@6B@             0041e788     PLC.obj
 0002:0000379c       ??_R4CComDataHandler@@6B@  0041e79c     PLC.obj
 0002:000037b0       ??_R2CVideoComIO@@8        0041e7b0     VideoComIO.obj
 0002:000037b8       ??_R1A@?0A@EA@CVideoComIO@@8 0041e7b8     VideoComIO.obj
 0002:000037d4       ??_R3CVideoComIO@@8        0041e7d4     VideoComIO.obj
 0002:000037e4       ??_R4CVideoComIO@@6B@      0041e7e4     VideoComIO.obj
 0002:00003800       ___safe_se_handler_table   0041e800     <linker-defined>
 0002:00003914       ___rtc_iaa                 0041e914     msvcrt:initsect.obj
 0002:00003918       ___rtc_izz                 0041e918     msvcrt:initsect.obj
 0002:0000391c       ___rtc_taa                 0041e91c     msvcrt:initsect.obj
 0002:00003920       ___rtc_tzz                 0041e920     msvcrt:initsect.obj
 0002:000039c4       __CT??_R0?AVbad_cast@std@@@8??0bad_cast@std@@QAE@ABV01@@Z12 0041e9c4     EndoScopeMFCDlg.obj
 0002:000039e0       __CTA2?AVbad_cast@std@@    0041e9e0     EndoScopeMFCDlg.obj
 0002:000039ec       __TI2?AVbad_cast@std@@     0041e9ec     EndoScopeMFCDlg.obj
 0002:000039fc       __CT??_R0?AVexception@std@@@8??0exception@std@@QAE@ABV01@@Z12 0041e9fc     EndoScopeMFCDlg.obj
 0002:00004bd8       __IMPORT_DESCRIPTOR_mfc110 0041fbd8     mfc110:mfc110.dll
 0002:00004bec       __IMPORT_DESCRIPTOR_MSVCR110 0041fbec     msvcrt:MSVCR110.dll
 0002:00004c00       __IMPORT_DESCRIPTOR_KERNEL32 0041fc00     kernel32:KERNEL32.dll
 0002:00004c14       __IMPORT_DESCRIPTOR_USER32 0041fc14     user32:USER32.dll
 0002:00004c28       __IMPORT_DESCRIPTOR_GDI32  0041fc28     gdi32:GDI32.dll
 0002:00004c3c       __IMPORT_DESCRIPTOR_SHELL32 0041fc3c     shell32:SHELL32.dll
 0002:00004c50       __IMPORT_DESCRIPTOR_COMCTL32 0041fc50     comctl32:COMCTL32.dll
 0002:00004c64       __IMPORT_DESCRIPTOR_SHLWAPI 0041fc64     shlwapi:SHLWAPI.dll
 0002:00004c78       __IMPORT_DESCRIPTOR_ole32  0041fc78     ole32:ole32.dll
 0002:00004c8c       __IMPORT_DESCRIPTOR_OLEAUT32 0041fc8c     oleaut32:OLEAUT32.dll
 0002:00004ca0       __IMPORT_DESCRIPTOR_MSVCP110 0041fca0     msvcprt:MSVCP110.dll
 0002:00004cb4       __IMPORT_DESCRIPTOR_opencv_core320 0041fcb4     opencv_core320:opencv_core320.dll
 0002:00004cc8       __IMPORT_DESCRIPTOR_opencv_highgui320 0041fcc8     opencv_highgui320:opencv_highgui320.dll
 0002:00004cdc       __IMPORT_DESCRIPTOR_opencv_imgcodecs320 0041fcdc     opencv_imgcodecs320:opencv_imgcodecs320.dll
 0002:00004cf0       __IMPORT_DESCRIPTOR_opencv_imgproc320 0041fcf0     opencv_imgproc320:opencv_imgproc320.dll
 0002:00004d04       __IMPORT_DESCRIPTOR_opencv_videoio320 0041fd04     opencv_videoio320:opencv_videoio320.dll
 0002:00004d18       __IMPORT_DESCRIPTOR_dbghelp 0041fd18     Dbghelp:dbghelp.dll
 0002:00004d2c       __NULL_IMPORT_DESCRIPTOR   0041fd2c     mfc110:mfc110.dll
 0003:00000000       ??_R0?AVtype_info@@@8      00423000     msvcrt:ti_inst.obj
 0003:00000018       ___security_cookie         00423018     msvcrt:gs_cookie.obj
 0003:0000001c       ___security_cookie_complement 0042301c     msvcrt:gs_cookie.obj
 0003:00000020       ___defaultmatherr          00423020     msvcrt:merr.obj
 0003:00000024       ___globallocalestatus      00423024     msvcrt:xthdloc.obj
 0003:00000028       ___native_dllmain_reason   00423028     msvcrt:natstart.obj
 0003:0000002c       ??_R0?AUIUnknown@@@8       0042302c     CEDSGrabberCB.obj
 0003:00000044       ??_R0?AVCEDSGrabberCB@@@8  00423044     CEDSGrabberCB.obj
 0003:00000060       ??_R0?AUISampleGrabberCB@@@8 00423060     CEDSGrabberCB.obj
 0003:00000080       ??_R0?AV_Iostream_error_category@std@@@8 00423080     CEDSGrabberCB.obj
 0003:000000ac       ??_R0?AV_Generic_error_category@std@@@8 004230ac     CEDSGrabberCB.obj
 0003:000000d8       ??_R0?AVerror_category@std@@@8 004230d8     CEDSGrabberCB.obj
 0003:000000fc       ??_R0?AVCDialog@@@8        004230fc     CSetPSW.obj
 0003:00000114       ??_R0?AVCWnd@@@8           00423114     CSetPSW.obj
 0003:00000128       ??_R0?AVCCmdTarget@@@8     00423128     CSetPSW.obj
 0003:00000144       ??_R0?AVCDialogEx@@@8      00423144     CSetPSW.obj
 0003:0000015c       ??_R0?AVCSetPSW@@@8        0042315c     CSetPSW.obj
 0003:00000174       ??_R0?AVCBrush@@@8         00423174     CSetPSW.obj
 0003:0000018c       ??_R0?AVCGdiObject@@@8     0042318c     CSetPSW.obj
 0003:000001a8       ??_R0?AVCObject@@@8        004231a8     CSetPSW.obj
 0003:000001c0       ??_R0PAVCException@@@8     004231c0     CSetPSW.obj
 0003:000001e0       ?g_lamdag@@3NA             004231e0     DataType.obj
 0003:000001e8       ?g_lamdab@@3NA             004231e8     DataType.obj
 0003:000001f0       ?g_lamdar@@3NA             004231f0     DataType.obj
 0003:000001f8       ?g_nPort@@3HA              004231f8     DataType.obj
 0003:000001fc       ?g_nCCOM@@3HA              004231fc     DataType.obj
 0003:00000200       ?g_nChangePixel@@3HA       00423200     DataType.obj
 0003:00000204       ?g_nThreshNew@@3HA         00423204     DataType.obj
 0003:00000208       ?g_nThresh@@3HA            00423208     DataType.obj
 0003:0000020c       ?g_nLBrightness@@3HA       0042320c     DataType.obj
 0003:00000210       ?g_nExposure@@3HA          00423210     DataType.obj
 0003:00000214       ?g_nSaturation@@3HA        00423214     DataType.obj
 0003:0000021c       ??_R0?AVCEDSCapture@@@8    0042321c     EDSCapture.obj
 0003:00000238       ??_R0?AVCWinApp@@@8        00423238     EndoScopeMFC.obj
 0003:00000250       ??_R0?AVCWinThread@@@8     00423250     EndoScopeMFC.obj
 0003:0000026c       ??_R0?AVCEndoScopeMFCApp@@@8 0042326c     EndoScopeMFC.obj
 0003:0000028c       ??_R0?AVios_base@std@@@8   0042328c     EndoScopeMFCDlg.obj
 0003:000002a8       ??_R0?AV?$_Iosb@H@std@@@8  004232a8     EndoScopeMFCDlg.obj
 0003:000002c4       ??_R0?AVCEndoScopeMFCDlg@@@8 004232c4     EndoScopeMFCDlg.obj
 0003:000002e4       ??_R0?AVCAboutDlg@@@8      004232e4     EndoScopeMFCDlg.obj
 0003:000002fc       ??_R0?AV?$basic_ostream@DU?$char_traits@D@std@@@std@@@8 004232fc     EndoScopeMFCDlg.obj
 0003:00000338       ??_R0?AV?$basic_ofstream@DU?$char_traits@D@std@@@std@@@8 00423338     EndoScopeMFCDlg.obj
 0003:00000374       ??_R0?AV?$basic_istream@DU?$char_traits@D@std@@@std@@@8 00423374     EndoScopeMFCDlg.obj
 0003:000003b0       ??_R0?AV?$basic_ios@DU?$char_traits@D@std@@@std@@@8 004233b0     EndoScopeMFCDlg.obj
 0003:000003e8       ??_R0?AV?$basic_ifstream@DU?$char_traits@D@std@@@std@@@8 004233e8     EndoScopeMFCDlg.obj
 0003:00000424       ??_R0?AV?$basic_streambuf@DU?$char_traits@D@std@@@std@@@8 00423424     EndoScopeMFCDlg.obj
 0003:00000460       ??_R0?AV?$basic_filebuf@DU?$char_traits@D@std@@@std@@@8 00423460     EndoScopeMFCDlg.obj
 0003:0000049c       ??_R0?AVbad_cast@std@@@8   0042349c     EndoScopeMFCDlg.obj
 0003:000004b8       ??_R0?AVexception@std@@@8  004234b8     EndoScopeMFCDlg.obj
 0003:000004d4       ??_R0?AVCRgn@@@8           004234d4     EndoScopeMFCDlg.obj
 0003:000004e8       ??_R0?AVCFont@@@8          004234e8     EndoScopeMFCDlg.obj
 0003:000004fc       ??_R0?AVCStatic@@@8        004234fc     EndoScopeMFCDlg.obj
 0003:00000514       ??_R0?AVCLightComIO@@@8    00423514     LightComIO.obj
 0003:00000530       ??_R0?AVLogin@@@8          00423530     Login.obj
 0003:00000544       ??_R0?AVCEdit@@@8          00423544     Login.obj
 0003:00000558       ??_R0?AV_System_error_category@std@@@8 00423558     pch.obj
 0003:00000584       ??_R0?AVCPLC@@@8           00423584     PLC.obj
 0003:00000598       ??_R0?AVCComDataHandler@@@8 00423598     PLC.obj
 0003:000005b8       ??_R0PAVCFileException@@@8 004235b8     ProcessCard.obj
 0003:000005d8       ??_R0PAVCMemoryException@@@8 004235d8     ProcessCard.obj
 0003:000005f8       ??_R0?AVCVideoComIO@@@8    004235f8     VideoComIO.obj
 0003:00000620       __afxForceEXCLUDE          00423620     mfcs110:nolib.obj
 0003:00000624       __afxForceSTDAFX           00423624     mfcs110:stdafx.obj
 0003:00000968       __commode                  00423968     msvcrt:xncommod.obj
 0003:0000096c       __dowildcard               0042396c     msvcrt:wildcard.obj
 0003:00000970       __newmode                  00423970     msvcrt:_newmode.obj
 0003:00000974       __fmode                    00423974     msvcrt:xtxtmode.obj
 0003:0000097d       ?_afxInitAppState@@3DA     0042397d     mfcs110:appmodul.obj
 0003:00000980       ?g_bStop@@3HA              00423980     DataType.obj
 0003:00000984       ?g_pShowDlg@@3PAVCWnd@@A   00423984     DataType.obj
 0003:00000988       ?g_bConnect@@3HA           00423988     DataType.obj
 0003:0000098c       ?g_bVideo@@3HA             0042398c     DataType.obj
 0003:00000990       ?g_bOneB@@3HA              00423990     DataType.obj
 0003:00000994       ?g_bOneR@@3HA              00423994     DataType.obj
 0003:00000998       ?g_bOneSharpen@@3HA        00423998     DataType.obj
 0003:0000099c       ?g_bIsUpan@@3HA            0042399c     DataType.obj
 0003:000009a0       ?g_bIsLightOpen@@3HA       004239a0     DataType.obj
 0003:000009a4       ?g_bWhiteBalance@@3HA      004239a4     DataType.obj
 0003:000009a8       ?g_bExposure@@3HA          004239a8     DataType.obj
 0003:000009ac       ?g_thred@@3HA              004239ac     DataType.obj
 0003:000009b0       ?g_iMenu@@3HA              004239b0     DataType.obj
 0003:000009b4       ?g_nLCOM@@3HA              004239b4     DataType.obj
 0003:000009b8       ?g_fGainB@@3NA             004239b8     DataType.obj
 0003:000009c0       ?g_fGainR@@3NA             004239c0     DataType.obj
 0003:000009c8       ?g_nVCOM@@3HA              004239c8     DataType.obj
 0003:000009cc       ?g_nShowShape@@3HA         004239cc     DataType.obj
 0003:000009d0       ?g_nChange255@@3HA         004239d0     DataType.obj
 0003:000009d4       ?g_nMetering@@3HA          004239d4     DataType.obj
 0003:000009d8       ?g_nBlue@@3HA              004239d8     DataType.obj
 0003:000009dc       ?g_nRed@@3HA               004239dc     DataType.obj
 0003:000009e0       ?g_nWhitebalance@@3HA      004239e0     DataType.obj
 0003:000009e4       ?g_nGain@@3HA              004239e4     DataType.obj
 0003:000009e8       ?g_nContrast@@3HA          004239e8     DataType.obj
 0003:000009ec       ?g_nBrightness@@3HA        004239ec     DataType.obj
 0003:000009f0       ?g_nSharpness@@3HA         004239f0     DataType.obj
 0003:000009f4       ?g_FPS@@3HA                004239f4     DataType.obj
 0003:000009f8       ?g_nprocess@@3HA           004239f8     EDSCapture.obj
 0003:00000a00       ?g_bprocthread@@3_NA       00423a00     EndoScopeMFCDlg.obj
 0003:00000a40       ?g_pPLC@@3PAVCPLC@@A       00423a40     PLC.obj
 0003:00000a54       ?g_decDriver@@3V?$CStringT@DV?$StrTraitMFC_DLL@DV?$ChTraitsCRT@D@ATL@@@@@ATL@@A 00423a54     DataType.obj
 0003:00000a58       ?g_strSaveDir@@3V?$CStringT@DV?$StrTraitMFC_DLL@DV?$ChTraitsCRT@D@ATL@@@@@ATL@@A 00423a58     DataType.obj
 0003:00000a5c       ?g_strTmpDir@@3V?$CStringT@DV?$StrTraitMFC_DLL@DV?$ChTraitsCRT@D@ATL@@@@@ATL@@A 00423a5c     DataType.obj
 0003:00000a60       ?g_ConfigPath@@3V?$CStringT@DV?$StrTraitMFC_DLL@DV?$ChTraitsCRT@D@ATL@@@@@ATL@@A 00423a60     DataType.obj
 0003:00000a64       ?g_strIP@@3V?$CStringT@DV?$StrTraitMFC_DLL@DV?$ChTraitsCRT@D@ATL@@@@@ATL@@A 00423a64     DataType.obj
 0003:00000a68       ?g_strName@@3V?$CStringT@DV?$StrTraitMFC_DLL@DV?$ChTraitsCRT@D@ATL@@@@@ATL@@A 00423a68     DataType.obj
 0003:00000a6c       ?g_strID@@3V?$CStringT@DV?$StrTraitMFC_DLL@DV?$ChTraitsCRT@D@ATL@@@@@ATL@@A 00423a6c     DataType.obj
 0003:00000a70       ?g_strPatientInfo@@3V?$CStringT@DV?$StrTraitMFC_DLL@DV?$ChTraitsCRT@D@ATL@@@@@ATL@@A 00423a70     DataType.obj
 0003:00000a74       ?strAvg@@3V?$CStringT@DV?$StrTraitMFC_DLL@DV?$ChTraitsCRT@D@ATL@@@@@ATL@@A 00423a74     DataType.obj
 0003:00000a78       ?strPeek@@3V?$CStringT@DV?$StrTraitMFC_DLL@DV?$ChTraitsCRT@D@ATL@@@@@ATL@@A 00423a78     DataType.obj
 0003:00000a7c       ?g_Video_list@@3V?$queue@PAEV?$deque@PAEV?$allocator@PAE@std@@@std@@@std@@A 00423a7c     DataType.obj
 0003:00000a90       ?g_Map_Sharpness@@3V?$map@INU?$less@I@std@@V?$allocator@U?$pair@$$CBIN@std@@@2@@std@@A 00423a90     DataType.obj
 0003:00000a98       ?g_Operate_list@@3V?$queue@V?$basic_string@DU?$char_traits@D@std@@V?$allocator@D@2@@std@@V?$deque@V?$basic_string@DU?$char_traits@D@std@@V?$allocator@D@2@@std@@V?$allocator@V?$basic_string@DU?$char_traits@D@std@@V?$allocator@D@2@@std@@@2@@2@@std@@A 00423a98     DataType.obj
 0003:00000aac       ?b@@3PAUHBRUSH__@@A        00423aac     EndoScopeMFCDlg.obj
 0003:00000ab0       ?theApp@@3VCEndoScopeMFCApp@@A 00423ab0     EndoScopeMFC.obj
 0003:00000b7c       ?g_videoevent@@3VCEvent@@A 00423b7c     EndoScopeMFCDlg.obj
 0003:00000b84       ?g_resizeevent@@3VCEvent@@A 00423b84     EndoScopeMFCDlg.obj
 0003:00000b8c       ?g_picevent@@3VCEvent@@A   00423b8c     EndoScopeMFCDlg.obj
 0003:00000b94       ?g_showevent@@3VCEvent@@A  00423b94     EndoScopeMFCDlg.obj
 0003:00000b9c       ?g_capevent@@3VCEvent@@A   00423b9c     EndoScopeMFCDlg.obj
 0003:024eac5c       ?_Psave@?$_Facetptr@V?$codecvt@DDH@std@@@std@@2PBVfacet@locale@2@B 0290dc5c     EndoScopeMFCDlg.obj
 0003:024eac64       ___@@_PchSym_@00@UdlipPdnUvmwlhxlkvnuxCABCPnvmfPxszmtvkzizPblfsfzPhzevkrxPfhyPBACIPgdlgsivzwPhevkrxUhixUvmwlhxlkvnuxUivovzhvUkxsOlyq@128B074877BBAA19 0290dc64     pch.obj
 0003:024eac68       ?_Iostream_object@?$_Error_objects@H@std@@2V_Iostream_error_category@2@A 0290dc68     CEDSGrabberCB.obj
 0003:024eac6c       ?_Stinit@?1??_Init@?$basic_filebuf@DU?$char_traits@D@std@@@std@@IAEXPAU_iobuf@@W4_Initfl@23@@Z@4HA 0290dc6c     EndoScopeMFCDlg.obj
 0003:024eac70       ?id@?$num_put@_WV?$back_insert_iterator@V?$basic_string@_WU?$char_traits@_W@std@@V?$allocator@_W@2@@std@@@std@@@std@@2V0locale@2@A 0290dc70     pch.obj
 0003:024eac74       ?_System_object@?$_Error_objects@H@std@@2V_System_error_category@2@A 0290dc74     pch.obj
 0003:024eac78       ?id@?$num_put@DV?$back_insert_iterator@V?$basic_string@DU?$char_traits@D@std@@V?$allocator@D@2@@std@@@std@@@std@@2V0locale@2@A 0290dc78     pch.obj
 0003:024eac7c       ?_Generic_object@?$_Error_objects@H@std@@2V_Generic_error_category@2@A 0290dc7c     pch.obj
 0003:024eac80       ___native_startup_lock     0290dc80     <common>
 0003:024eac84       ___native_startup_state    0290dc84     <common>
 0003:024eac88       ___dyn_tls_init_callback   0290dc88     <common>
 0003:024eac8c       ___onexitend               0290dc8c     <common>
 0003:024eac90       ___onexitbegin             0290dc90     <common>

 entry point at        0001:000177aa

 Static symbols

 0000:fdace000       .debug$S                   00400000     Dbghelp:dbghelp.dll
 0000:fdace000       .debug$S                   00400000     opencv_videoio320:opencv_videoio320.dll
 0000:fdace000       .debug$S                   00400000     opencv_videoio320:opencv_videoio320.dll
 0000:fdace000       .debug$S                   00400000     opencv_videoio320:opencv_videoio320.dll
 0000:fdace000       .debug$S                   00400000     opencv_imgproc320:opencv_imgproc320.dll
 0000:fdace000       .debug$S                   00400000     opencv_imgproc320:opencv_imgproc320.dll
 0000:fdace000       .debug$S                   00400000     opencv_imgproc320:opencv_imgproc320.dll
 0000:fdace000       .debug$S                   00400000     opencv_imgcodecs320:opencv_imgcodecs320.dll
 0000:fdace000       .debug$S                   00400000     opencv_highgui320:opencv_highgui320.dll
 0000:fdace000       .debug$S                   00400000     opencv_highgui320:opencv_highgui320.dll
 0000:fdace000       .debug$S                   00400000     opencv_highgui320:opencv_highgui320.dll
 0000:fdace000       .debug$S                   00400000     opencv_highgui320:opencv_highgui320.dll
 0000:fdace000       .debug$S                   00400000     opencv_highgui320:opencv_highgui320.dll
 0000:fdace000       .debug$S                   00400000     opencv_core320:opencv_core320.dll
 0000:fdace000       .debug$S                   00400000     opencv_core320:opencv_core320.dll
 0000:fdace000       .debug$S                   00400000     opencv_core320:opencv_core320.dll
 0000:fdace000       .debug$S                   00400000     opencv_core320:opencv_core320.dll
 0000:fdace000       .debug$S                   00400000     opencv_core320:opencv_core320.dll
 0000:fdace000       .debug$S                   00400000     opencv_core320:opencv_core320.dll
 0000:fdace000       .debug$S                   00400000     opencv_core320:opencv_core320.dll
 0000:fdace000       .debug$S                   00400000     opencv_core320:opencv_core320.dll
 0000:fdace000       .debug$S                   00400000     opencv_core320:opencv_core320.dll
 0000:fdace000       .debug$S                   00400000     opencv_core320:opencv_core320.dll
 0000:fdace000       .debug$S                   00400000     msvcprt:MSVCP110.dll
 0000:fdace000       .debug$S                   00400000     msvcprt:MSVCP110.dll
 0000:fdace000       .debug$S                   00400000     msvcprt:MSVCP110.dll
 0000:fdace000       .debug$S                   00400000     msvcprt:MSVCP110.dll
 0000:fdace000       .debug$S                   00400000     msvcprt:MSVCP110.dll
 0000:fdace000       .debug$S                   00400000     msvcprt:MSVCP110.dll
 0000:fdace000       .debug$S                   00400000     msvcprt:MSVCP110.dll
 0000:fdace000       .debug$S                   00400000     msvcprt:MSVCP110.dll
 0000:fdace000       .debug$S                   00400000     msvcprt:MSVCP110.dll
 0000:fdace000       .debug$S                   00400000     msvcprt:MSVCP110.dll
 0000:fdace000       .debug$S                   00400000     msvcprt:MSVCP110.dll
 0000:fdace000       .debug$S                   00400000     msvcprt:MSVCP110.dll
 0000:fdace000       .debug$S                   00400000     msvcprt:MSVCP110.dll
 0000:fdace000       .debug$S                   00400000     msvcprt:MSVCP110.dll
 0000:fdace000       .debug$S                   00400000     msvcprt:MSVCP110.dll
 0000:fdace000       .debug$S                   00400000     msvcprt:MSVCP110.dll
 0000:fdace000       .debug$S                   00400000     msvcprt:MSVCP110.dll
 0000:fdace000       .debug$S                   00400000     msvcprt:MSVCP110.dll
 0000:fdace000       .debug$S                   00400000     msvcprt:MSVCP110.dll
 0000:fdace000       .debug$S                   00400000     msvcprt:MSVCP110.dll
 0000:fdace000       .debug$S                   00400000     msvcprt:MSVCP110.dll
 0000:fdace000       .debug$S                   00400000     msvcprt:MSVCP110.dll
 0000:fdace000       .debug$S                   00400000     msvcprt:MSVCP110.dll
 0000:fdace000       .debug$S                   00400000     msvcprt:MSVCP110.dll
 0000:fdace000       .debug$S                   00400000     msvcprt:MSVCP110.dll
 0000:fdace000       .debug$S                   00400000     msvcprt:MSVCP110.dll
 0000:fdace000       .debug$S                   00400000     msvcprt:MSVCP110.dll
 0000:fdace000       .debug$S                   00400000     msvcprt:MSVCP110.dll
 0000:fdace000       .debug$S                   00400000     msvcprt:MSVCP110.dll
 0000:fdace000       .debug$S                   00400000     msvcprt:MSVCP110.dll
 0000:fdace000       .debug$S                   00400000     msvcprt:MSVCP110.dll
 0000:fdace000       .debug$S                   00400000     msvcprt:MSVCP110.dll
 0000:fdace000       .debug$S                   00400000     msvcprt:MSVCP110.dll
 0000:fdace000       .debug$S                   00400000     msvcprt:MSVCP110.dll
 0000:fdace000       .debug$S                   00400000     msvcprt:MSVCP110.dll
 0000:fdace000       .debug$S                   00400000     msvcprt:MSVCP110.dll
 0000:fdace000       .debug$S                   00400000     msvcprt:MSVCP110.dll
 0000:fdace000       .debug$S                   00400000     msvcprt:MSVCP110.dll
 0000:fdace000       .debug$S                   00400000     msvcprt:MSVCP110.dll
 0000:fdace000       .debug$S                   00400000     msvcprt:MSVCP110.dll
 0000:fdace000       .debug$S                   00400000     msvcprt:MSVCP110.dll
 0000:fdace000       .debug$S                   00400000     msvcprt:MSVCP110.dll
 0000:fdace000       .debug$S                   00400000     msvcprt:MSVCP110.dll
 0000:fdace000       .debug$S                   00400000     msvcprt:MSVCP110.dll
 0000:fdace000       .debug$S                   00400000     msvcprt:MSVCP110.dll
 0000:fdace000       .debug$S                   00400000     msvcprt:MSVCP110.dll
 0000:fdace000       .debug$S                   00400000     msvcprt:MSVCP110.dll
 0000:fdace000       .debug$S                   00400000     msvcprt:MSVCP110.dll
 0000:fdace000       .debug$S                   00400000     msvcprt:MSVCP110.dll
 0000:fdace000       .debug$S                   00400000     msvcprt:MSVCP110.dll
 0000:fdace000       .debug$S                   00400000     msvcprt:MSVCP110.dll
 0000:fdace000       .debug$S                   00400000     msvcprt:MSVCP110.dll
 0000:fdace000       .debug$S                   00400000     msvcprt:MSVCP110.dll
 0000:fdace000       .debug$S                   00400000     msvcprt:MSVCP110.dll
 0000:fdace000       .debug$S                   00400000     msvcprt:MSVCP110.dll
 0000:fdace000       .debug$S                   00400000     msvcprt:MSVCP110.dll
 0000:fdace000       .debug$S                   00400000     msvcprt:MSVCP110.dll
 0000:fdace000       .debug$S                   00400000     msvcprt:MSVCP110.dll
 0000:fdace000       .debug$S                   00400000     msvcprt:MSVCP110.dll
 0000:fdace000       .debug$S                   00400000     msvcprt:MSVCP110.dll
 0000:fdace000       .debug$S                   00400000     msvcprt:MSVCP110.dll
 0000:fdace000       .debug$S                   00400000     msvcprt:MSVCP110.dll
 0000:fdace000       .debug$S                   00400000     msvcprt:MSVCP110.dll
 0000:fdace000       .debug$S                   00400000     msvcprt:MSVCP110.dll
 0000:fdace000       .debug$S                   00400000     msvcprt:MSVCP110.dll
 0000:fdace000       .debug$S                   00400000     msvcprt:MSVCP110.dll
 0000:fdace000       .debug$S                   00400000     msvcprt:MSVCP110.dll
 0000:fdace000       .debug$S                   00400000     msvcprt:MSVCP110.dll
 0000:fdace000       .debug$S                   00400000     msvcprt:MSVCP110.dll
 0000:fdace000       .debug$S                   00400000     msvcprt:MSVCP110.dll
 0000:fdace000       .debug$S                   00400000     msvcprt:MSVCP110.dll
 0000:fdace000       .debug$S                   00400000     msvcprt:MSVCP110.dll
 0000:fdace000       .debug$S                   00400000     msvcprt:MSVCP110.dll
 0000:fdace000       .debug$S                   00400000     mfc110:mfc110.dll
 0000:fdace000       .debug$S                   00400000     mfc110:mfc110.dll
 0000:fdace000       .debug$S                   00400000     mfc110:mfc110.dll
 0000:fdace000       .debug$S                   00400000     oleaut32:OLEAUT32.dll
 0000:fdace000       .debug$S                   00400000     oleaut32:OLEAUT32.dll
 0000:fdace000       .debug$S                   00400000     oleaut32:OLEAUT32.dll
 0000:fdace000       .debug$S                   00400000     oleaut32:OLEAUT32.dll
 0000:fdace000       .debug$S                   00400000     oleaut32:OLEAUT32.dll
 0000:fdace000       .debug$S                   00400000     oleaut32:OLEAUT32.dll
 0000:fdace000       .debug$S                   00400000     ole32:ole32.dll
 0000:fdace000       .debug$S                   00400000     ole32:ole32.dll
 0000:fdace000       .debug$S                   00400000     ole32:ole32.dll
 0000:fdace000       .debug$S                   00400000     ole32:ole32.dll
 0000:fdace000       .debug$S                   00400000     shlwapi:SHLWAPI.dll
 0000:fdace000       .debug$S                   00400000     comctl32:COMCTL32.dll
 0000:fdace000       .debug$S                   00400000     shell32:SHELL32.dll
 0000:fdace000       .debug$S                   00400000     gdi32:GDI32.dll
 0000:fdace000       .debug$S                   00400000     gdi32:GDI32.dll
 0000:fdace000       .debug$S                   00400000     gdi32:GDI32.dll
 0000:fdace000       .debug$S                   00400000     gdi32:GDI32.dll
 0000:fdace000       .debug$S                   00400000     gdi32:GDI32.dll
 0000:fdace000       .debug$S                   00400000     gdi32:GDI32.dll
 0000:fdace000       .debug$S                   00400000     gdi32:GDI32.dll
 0000:fdace000       .debug$S                   00400000     gdi32:GDI32.dll
 0000:fdace000       .debug$S                   00400000     gdi32:GDI32.dll
 0000:fdace000       .debug$S                   00400000     user32:USER32.dll
 0000:fdace000       .debug$S                   00400000     user32:USER32.dll
 0000:fdace000       .debug$S                   00400000     user32:USER32.dll
 0000:fdace000       .debug$S                   00400000     user32:USER32.dll
 0000:fdace000       .debug$S                   00400000     user32:USER32.dll
 0000:fdace000       .debug$S                   00400000     user32:USER32.dll
 0000:fdace000       .debug$S                   00400000     user32:USER32.dll
 0000:fdace000       .debug$S                   00400000     user32:USER32.dll
 0000:fdace000       .debug$S                   00400000     user32:USER32.dll
 0000:fdace000       .debug$S                   00400000     user32:USER32.dll
 0000:fdace000       .debug$S                   00400000     user32:USER32.dll
 0000:fdace000       .debug$S                   00400000     user32:USER32.dll
 0000:fdace000       .debug$S                   00400000     user32:USER32.dll
 0000:fdace000       .debug$S                   00400000     user32:USER32.dll
 0000:fdace000       .debug$S                   00400000     user32:USER32.dll
 0000:fdace000       .debug$S                   00400000     user32:USER32.dll
 0000:fdace000       .debug$S                   00400000     user32:USER32.dll
 0000:fdace000       .debug$S                   00400000     user32:USER32.dll
 0000:fdace000       .debug$S                   00400000     user32:USER32.dll
 0000:fdace000       .debug$S                   00400000     user32:USER32.dll
 0000:fdace000       .debug$S                   00400000     user32:USER32.dll
 0000:fdace000       .debug$S                   00400000     kernel32:KERNEL32.dll
 0000:fdace000       .debug$S                   00400000     kernel32:KERNEL32.dll
 0000:fdace000       .debug$S                   00400000     kernel32:KERNEL32.dll
 0000:fdace000       .debug$S                   00400000     kernel32:KERNEL32.dll
 0000:fdace000       .debug$S                   00400000     kernel32:KERNEL32.dll
 0000:fdace000       .debug$S                   00400000     kernel32:KERNEL32.dll
 0000:fdace000       .debug$S                   00400000     kernel32:KERNEL32.dll
 0000:fdace000       .debug$S                   00400000     kernel32:KERNEL32.dll
 0000:fdace000       .debug$S                   00400000     kernel32:KERNEL32.dll
 0000:fdace000       .debug$S                   00400000     kernel32:KERNEL32.dll
 0000:fdace000       .debug$S                   00400000     kernel32:KERNEL32.dll
 0000:fdace000       .debug$S                   00400000     kernel32:KERNEL32.dll
 0000:fdace000       .debug$S                   00400000     kernel32:KERNEL32.dll
 0000:fdace000       .debug$S                   00400000     kernel32:KERNEL32.dll
 0000:fdace000       .debug$S                   00400000     kernel32:KERNEL32.dll
 0000:fdace000       .debug$S                   00400000     kernel32:KERNEL32.dll
 0000:fdace000       .debug$S                   00400000     kernel32:KERNEL32.dll
 0000:fdace000       .debug$S                   00400000     kernel32:KERNEL32.dll
 0000:fdace000       .debug$S                   00400000     kernel32:KERNEL32.dll
 0000:fdace000       .debug$S                   00400000     kernel32:KERNEL32.dll
 0000:fdace000       .debug$S                   00400000     kernel32:KERNEL32.dll
 0000:fdace000       .debug$S                   00400000     kernel32:KERNEL32.dll
 0000:fdace000       .debug$S                   00400000     kernel32:KERNEL32.dll
 0000:fdace000       .debug$S                   00400000     kernel32:KERNEL32.dll
 0000:fdace000       .debug$S                   00400000     kernel32:KERNEL32.dll
 0000:fdace000       .debug$S                   00400000     kernel32:KERNEL32.dll
 0000:fdace000       .debug$S                   00400000     kernel32:KERNEL32.dll
 0000:fdace000       .debug$S                   00400000     kernel32:KERNEL32.dll
 0000:fdace000       .debug$S                   00400000     kernel32:KERNEL32.dll
 0000:fdace000       .debug$S                   00400000     kernel32:KERNEL32.dll
 0000:fdace000       .debug$S                   00400000     kernel32:KERNEL32.dll
 0000:fdace000       .debug$S                   00400000     kernel32:KERNEL32.dll
 0000:fdace000       .debug$S                   00400000     kernel32:KERNEL32.dll
 0000:fdace000       .debug$S                   00400000     msvcrt:MSVCR110.dll
 0000:fdace000       .debug$S                   00400000     msvcrt:MSVCR110.dll
 0000:fdace000       .debug$S                   00400000     msvcrt:MSVCR110.dll
 0000:fdace000       .debug$S                   00400000     msvcrt:MSVCR110.dll
 0000:fdace000       .debug$S                   00400000     msvcrt:MSVCR110.dll
 0000:fdace000       .debug$S                   00400000     msvcrt:MSVCR110.dll
 0000:fdace000       .debug$S                   00400000     msvcrt:MSVCR110.dll
 0000:fdace000       .debug$S                   00400000     msvcrt:MSVCR110.dll
 0000:fdace000       .debug$S                   00400000     msvcrt:MSVCR110.dll
 0000:fdace000       .debug$S                   00400000     msvcrt:MSVCR110.dll
 0000:fdace000       .debug$S                   00400000     msvcrt:MSVCR110.dll
 0000:fdace000       .debug$S                   00400000     msvcrt:MSVCR110.dll
 0000:fdace000       .debug$S                   00400000     msvcrt:MSVCR110.dll
 0000:fdace000       .debug$S                   00400000     msvcrt:MSVCR110.dll
 0000:fdace000       .debug$S                   00400000     msvcrt:MSVCR110.dll
 0000:fdace000       .debug$S                   00400000     msvcrt:MSVCR110.dll
 0000:fdace000       .debug$S                   00400000     msvcrt:MSVCR110.dll
 0000:fdace000       .debug$S                   00400000     msvcrt:MSVCR110.dll
 0000:fdace000       .debug$S                   00400000     msvcrt:MSVCR110.dll
 0000:fdace000       .debug$S                   00400000     msvcrt:MSVCR110.dll
 0000:fdace000       .debug$S                   00400000     msvcrt:MSVCR110.dll
 0000:fdace000       .debug$S                   00400000     msvcrt:MSVCR110.dll
 0000:fdace000       .debug$S                   00400000     msvcrt:MSVCR110.dll
 0000:fdace000       .debug$S                   00400000     msvcrt:MSVCR110.dll
 0000:fdace000       .debug$S                   00400000     msvcrt:MSVCR110.dll
 0000:fdace000       .debug$S                   00400000     msvcrt:MSVCR110.dll
 0000:fdace000       .debug$S                   00400000     msvcrt:MSVCR110.dll
 0000:fdace000       .debug$S                   00400000     msvcrt:MSVCR110.dll
 0000:fdace000       .debug$S                   00400000     msvcrt:MSVCR110.dll
 0000:fdace000       .debug$S                   00400000     msvcrt:MSVCR110.dll
 0000:fdace000       .debug$S                   00400000     msvcrt:MSVCR110.dll
 0000:fdace000       .debug$S                   00400000     msvcrt:MSVCR110.dll
 0000:fdace000       .debug$S                   00400000     msvcrt:MSVCR110.dll
 0000:fdace000       .debug$S                   00400000     msvcrt:MSVCR110.dll
 0000:fdace000       .debug$S                   00400000     msvcrt:MSVCR110.dll
 0000:fdace000       .debug$S                   00400000     msvcrt:MSVCR110.dll
 0000:fdace000       .debug$S                   00400000     msvcrt:MSVCR110.dll
 0000:fdace000       .debug$S                   00400000     msvcrt:MSVCR110.dll
 0000:fdace000       .debug$S                   00400000     msvcrt:MSVCR110.dll
 0000:fdace000       .debug$S                   00400000     msvcrt:MSVCR110.dll
 0000:fdace000       .debug$S                   00400000     msvcrt:MSVCR110.dll
 0000:fdace000       .debug$S                   00400000     msvcrt:MSVCR110.dll
 0000:fdace000       .debug$S                   00400000     msvcrt:MSVCR110.dll
 0000:fdace000       .debug$S                   00400000     msvcrt:MSVCR110.dll
 0000:fdace000       .debug$S                   00400000     msvcrt:MSVCR110.dll
 0000:fdace000       .debug$S                   00400000     msvcrt:MSVCR110.dll
 0000:fdace000       .debug$S                   00400000     msvcrt:MSVCR110.dll
 0000:fdace000       .debug$S                   00400000     msvcrt:MSVCR110.dll
 0000:fdace000       .debug$S                   00400000     msvcrt:MSVCR110.dll
 0000:fdace000       .debug$S                   00400000     msvcrt:MSVCR110.dll
 0000:fdace000       .debug$S                   00400000     msvcrt:MSVCR110.dll
 0000:fdace000       .debug$S                   00400000     msvcrt:MSVCR110.dll
 0000:fdace000       .debug$S                   00400000     msvcrt:MSVCR110.dll
 0000:fdace000       .debug$S                   00400000     msvcrt:MSVCR110.dll
 0000:fdace000       .debug$S                   00400000     msvcrt:MSVCR110.dll
 0000:fdace000       .debug$S                   00400000     msvcrt:MSVCR110.dll
 0000:fdace000       .debug$S                   00400000     msvcrt:MSVCR110.dll
 0000:fdace000       .debug$S                   00400000     msvcrt:MSVCR110.dll
 0000:fdace000       .debug$S                   00400000     msvcrt:MSVCR110.dll
 0000:fdace000       .debug$S                   00400000     msvcrt:MSVCR110.dll
 0000:fdace000       .debug$S                   00400000     msvcrt:MSVCR110.dll
 0000:fdace000       .debug$S                   00400000     msvcrt:MSVCR110.dll
 0000:fdace000       .debug$S                   00400000     msvcrt:MSVCR110.dll
 0000:fdace000       .debug$S                   00400000     msvcrt:MSVCR110.dll
 0000:fdace000       .debug$S                   00400000     msvcrt:MSVCR110.dll
 0000:fdace000       .debug$S                   00400000     msvcrt:MSVCR110.dll
 0000:fdace000       .debug$S                   00400000     msvcrt:MSVCR110.dll
 0000:fdace000       .debug$S                   00400000     msvcrt:MSVCR110.dll
 0000:fdace000       .debug$S                   00400000     mfc110:mfc110.dll
 0000:fdace000       .debug$S                   00400000     mfc110:mfc110.dll
 0000:fdace000       .debug$S                   00400000     mfc110:mfc110.dll
 0000:fdace000       .debug$S                   00400000     mfc110:mfc110.dll
 0000:fdace000       .debug$S                   00400000     mfc110:mfc110.dll
 0000:fdace000       .debug$S                   00400000     mfc110:mfc110.dll
 0000:fdace000       .debug$S                   00400000     mfc110:mfc110.dll
 0000:fdace000       .debug$S                   00400000     mfc110:mfc110.dll
 0000:fdace000       .debug$S                   00400000     mfc110:mfc110.dll
 0000:fdace000       .debug$S                   00400000     mfc110:mfc110.dll
 0000:fdace000       .debug$S                   00400000     mfc110:mfc110.dll
 0000:fdace000       .debug$S                   00400000     mfc110:mfc110.dll
 0000:fdace000       .debug$S                   00400000     mfc110:mfc110.dll
 0000:fdace000       .debug$S                   00400000     mfc110:mfc110.dll
 0000:fdace000       .debug$S                   00400000     mfc110:mfc110.dll
 0000:fdace000       .debug$S                   00400000     mfc110:mfc110.dll
 0000:fdace000       .debug$S                   00400000     mfc110:mfc110.dll
 0000:fdace000       .debug$S                   00400000     mfc110:mfc110.dll
 0000:fdace000       .debug$S                   00400000     mfc110:mfc110.dll
 0000:fdace000       .debug$S                   00400000     mfc110:mfc110.dll
 0000:fdace000       .debug$S                   00400000     mfc110:mfc110.dll
 0000:fdace000       .debug$S                   00400000     mfc110:mfc110.dll
 0000:fdace000       .debug$S                   00400000     mfc110:mfc110.dll
 0000:fdace000       .debug$S                   00400000     mfc110:mfc110.dll
 0000:fdace000       .debug$S                   00400000     mfc110:mfc110.dll
 0000:fdace000       .debug$S                   00400000     mfc110:mfc110.dll
 0000:fdace000       .debug$S                   00400000     mfc110:mfc110.dll
 0000:fdace000       .debug$S                   00400000     mfc110:mfc110.dll
 0000:fdace000       .debug$S                   00400000     mfc110:mfc110.dll
 0000:fdace000       .debug$S                   00400000     mfc110:mfc110.dll
 0000:fdace000       .debug$S                   00400000     mfc110:mfc110.dll
 0000:fdace000       .debug$S                   00400000     mfc110:mfc110.dll
 0000:fdace000       .debug$S                   00400000     mfc110:mfc110.dll
 0000:fdace000       .debug$S                   00400000     mfc110:mfc110.dll
 0000:fdace000       .debug$S                   00400000     mfc110:mfc110.dll
 0000:fdace000       .debug$S                   00400000     mfc110:mfc110.dll
 0000:fdace000       .debug$S                   00400000     mfc110:mfc110.dll
 0000:fdace000       .debug$S                   00400000     mfc110:mfc110.dll
 0000:fdace000       .debug$S                   00400000     mfc110:mfc110.dll
 0000:fdace000       .debug$S                   00400000     mfc110:mfc110.dll
 0000:fdace000       .debug$S                   00400000     mfc110:mfc110.dll
 0000:fdace000       .debug$S                   00400000     mfc110:mfc110.dll
 0000:fdace000       .debug$S                   00400000     mfc110:mfc110.dll
 0000:fdace000       .debug$S                   00400000     mfc110:mfc110.dll
 0000:fdace000       .debug$S                   00400000     mfc110:mfc110.dll
 0000:fdace000       .debug$S                   00400000     mfc110:mfc110.dll
 0000:fdace000       .debug$S                   00400000     mfc110:mfc110.dll
 0000:fdace000       .debug$S                   00400000     mfc110:mfc110.dll
 0000:fdace000       .debug$S                   00400000     mfc110:mfc110.dll
 0000:fdace000       .debug$S                   00400000     mfc110:mfc110.dll
 0000:fdace000       .debug$S                   00400000     mfc110:mfc110.dll
 0000:fdace000       .debug$S                   00400000     mfc110:mfc110.dll
 0000:fdace000       .debug$S                   00400000     mfc110:mfc110.dll
 0000:fdace000       .debug$S                   00400000     mfc110:mfc110.dll
 0000:fdace000       .debug$S                   00400000     mfc110:mfc110.dll
 0000:fdace000       .debug$S                   00400000     mfc110:mfc110.dll
 0000:fdace000       .debug$S                   00400000     mfc110:mfc110.dll
 0000:fdace000       .debug$S                   00400000     mfc110:mfc110.dll
 0000:fdace000       .debug$S                   00400000     mfc110:mfc110.dll
 0000:fdace000       .debug$S                   00400000     mfc110:mfc110.dll
 0000:fdace000       .debug$S                   00400000     mfc110:mfc110.dll
 0000:fdace000       .debug$S                   00400000     mfc110:mfc110.dll
 0000:fdace000       .debug$S                   00400000     mfc110:mfc110.dll
 0000:fdace000       .debug$S                   00400000     mfc110:mfc110.dll
 0000:fdace000       .debug$S                   00400000     mfc110:mfc110.dll
 0000:fdace000       .debug$S                   00400000     mfc110:mfc110.dll
 0000:fdace000       .debug$S                   00400000     mfc110:mfc110.dll
 0000:fdace000       .debug$S                   00400000     mfc110:mfc110.dll
 0000:fdace000       .debug$S                   00400000     mfc110:mfc110.dll
 0000:fdace000       .debug$S                   00400000     mfc110:mfc110.dll
 0000:fdace000       .debug$S                   00400000     mfc110:mfc110.dll
 0000:fdace000       .debug$S                   00400000     mfc110:mfc110.dll
 0000:fdace000       .debug$S                   00400000     mfc110:mfc110.dll
 0000:fdace000       .debug$S                   00400000     mfc110:mfc110.dll
 0000:fdace000       .debug$S                   00400000     mfc110:mfc110.dll
 0000:fdace000       .debug$S                   00400000     mfc110:mfc110.dll
 0000:fdace000       .debug$S                   00400000     mfc110:mfc110.dll
 0000:fdace000       .debug$S                   00400000     mfc110:mfc110.dll
 0000:fdace000       .debug$S                   00400000     mfc110:mfc110.dll
 0000:fdace000       .debug$S                   00400000     mfc110:mfc110.dll
 0000:fdace000       .debug$S                   00400000     mfc110:mfc110.dll
 0000:fdace000       .debug$S                   00400000     mfc110:mfc110.dll
 0000:fdace000       .debug$S                   00400000     mfc110:mfc110.dll
 0000:fdace000       .debug$S                   00400000     mfc110:mfc110.dll
 0000:fdace000       .debug$S                   00400000     mfc110:mfc110.dll
 0000:fdace000       .debug$S                   00400000     mfc110:mfc110.dll
 0000:fdace000       .debug$S                   00400000     mfc110:mfc110.dll
 0000:fdace000       .debug$S                   00400000     mfc110:mfc110.dll
 0000:fdace000       .debug$S                   00400000     mfc110:mfc110.dll
 0000:fdace000       .debug$S                   00400000     mfc110:mfc110.dll
 0000:fdace000       .debug$S                   00400000     mfc110:mfc110.dll
 0000:fdace000       .debug$S                   00400000     mfc110:mfc110.dll
 0000:fdace000       .debug$S                   00400000     mfc110:mfc110.dll
 0000:fdace000       .debug$S                   00400000     mfc110:mfc110.dll
 0000:fdace000       .debug$S                   00400000     mfc110:mfc110.dll
 0000:fdace000       .debug$S                   00400000     mfc110:mfc110.dll
 0000:fdace000       .debug$S                   00400000     mfc110:mfc110.dll
 0000:fdace000       .debug$S                   00400000     mfc110:mfc110.dll
 0000:fdace000       .debug$S                   00400000     mfc110:mfc110.dll
 0000:fdace000       .debug$S                   00400000     mfc110:mfc110.dll
 0000:fdace000       .debug$S                   00400000     mfc110:mfc110.dll
 0000:fdace000       .debug$S                   00400000     mfc110:mfc110.dll
 0000:fdace000       .debug$S                   00400000     mfc110:mfc110.dll
 0000:fdace000       .debug$S                   00400000     mfc110:mfc110.dll
 0000:fdace000       .debug$S                   00400000     mfc110:mfc110.dll
 0000:fdace000       .debug$S                   00400000     mfc110:mfc110.dll
 0000:fdace000       .debug$S                   00400000     mfc110:mfc110.dll
 0000:fdace000       .debug$S                   00400000     mfc110:mfc110.dll
 0000:fdace000       .debug$S                   00400000     mfc110:mfc110.dll
 0000:fdace000       .debug$S                   00400000     mfc110:mfc110.dll
 0000:fdace000       .debug$S                   00400000     mfc110:mfc110.dll
 0000:fdace000       .debug$S                   00400000     mfc110:mfc110.dll
 0000:fdace000       .debug$S                   00400000     mfc110:mfc110.dll
 0000:fdace000       .debug$S                   00400000     mfc110:mfc110.dll
 0000:fdace000       .debug$S                   00400000     mfc110:mfc110.dll
 0000:fdace000       .debug$S                   00400000     mfc110:mfc110.dll
 0000:fdace000       .debug$S                   00400000     mfc110:mfc110.dll
 0000:fdace000       .debug$S                   00400000     mfc110:mfc110.dll
 0000:fdace000       .debug$S                   00400000     mfc110:mfc110.dll
 0000:fdace000       .debug$S                   00400000     mfc110:mfc110.dll
 0000:fdace000       .debug$S                   00400000     mfc110:mfc110.dll
 0000:fdace000       .debug$S                   00400000     mfc110:mfc110.dll
 0000:fdace000       .debug$S                   00400000     mfc110:mfc110.dll
 0000:fdace000       .debug$S                   00400000     mfc110:mfc110.dll
 0000:fdace000       .debug$S                   00400000     mfc110:mfc110.dll
 0000:fdace000       .debug$S                   00400000     mfc110:mfc110.dll
 0000:fdace000       .debug$S                   00400000     mfc110:mfc110.dll
 0000:fdace000       .debug$S                   00400000     mfc110:mfc110.dll
 0000:fdace000       .debug$S                   00400000     mfc110:mfc110.dll
 0000:fdace000       .debug$S                   00400000     mfc110:mfc110.dll
 0000:fdace000       .debug$S                   00400000     mfc110:mfc110.dll
 0000:fdace000       .debug$S                   00400000     mfc110:mfc110.dll
 0000:fdace000       .debug$S                   00400000     mfc110:mfc110.dll
 0000:fdace000       .debug$S                   00400000     mfc110:mfc110.dll
 0000:fdace000       .debug$S                   00400000     mfc110:mfc110.dll
 0000:fdace000       .debug$S                   00400000     mfc110:mfc110.dll
 0000:fdace000       .debug$S                   00400000     mfc110:mfc110.dll
 0000:fdace000       .debug$S                   00400000     mfc110:mfc110.dll
 0000:fdace000       .debug$S                   00400000     mfc110:mfc110.dll
 0000:fdace000       .debug$S                   00400000     mfc110:mfc110.dll
 0000:fdace000       .debug$S                   00400000     mfc110:mfc110.dll
 0000:fdace000       .debug$S                   00400000     mfc110:mfc110.dll
 0000:fdace000       .debug$S                   00400000     mfc110:mfc110.dll
 0000:fdace000       .debug$S                   00400000     mfc110:mfc110.dll
 0000:fdace000       .debug$S                   00400000     mfc110:mfc110.dll
 0000:fdace000       .debug$S                   00400000     mfc110:mfc110.dll
 0000:fdace000       .debug$S                   00400000     mfc110:mfc110.dll
 0000:fdace000       .debug$S                   00400000     mfc110:mfc110.dll
 0000:fdace000       .debug$S                   00400000     mfc110:mfc110.dll
 0000:fdace000       .debug$S                   00400000     mfc110:mfc110.dll
 0000:fdace000       .debug$S                   00400000     mfc110:mfc110.dll
 0000:fdace000       .debug$S                   00400000     mfc110:mfc110.dll
 0000:fdace000       .debug$S                   00400000     mfc110:mfc110.dll
 0000:fdace000       .debug$S                   00400000     mfc110:mfc110.dll
 0000:fdace000       .debug$S                   00400000     mfc110:mfc110.dll
 0000:fdace000       .debug$S                   00400000     mfc110:mfc110.dll
 0000:fdace000       .debug$S                   00400000     mfc110:mfc110.dll
 0000:fdace000       .debug$S                   00400000     mfc110:mfc110.dll
 0000:fdace000       .debug$S                   00400000     mfc110:mfc110.dll
 0000:fdace000       .debug$S                   00400000     mfc110:mfc110.dll
 0000:fdace000       .debug$S                   00400000     mfc110:mfc110.dll
 0000:fdace000       .debug$S                   00400000     mfc110:mfc110.dll
 0000:fdace000       .debug$S                   00400000     mfc110:mfc110.dll
 0000:fdace000       .debug$S                   00400000     mfc110:mfc110.dll
 0000:fdace000       .debug$S                   00400000     mfc110:mfc110.dll
 0000:fdace000       .debug$S                   00400000     mfc110:mfc110.dll
 0000:fdace000       .debug$S                   00400000     mfc110:mfc110.dll
 0000:fdace000       .debug$S                   00400000     mfc110:mfc110.dll
 0000:fdace000       .debug$S                   00400000     mfc110:mfc110.dll
 0000:fdace000       .debug$S                   00400000     mfc110:mfc110.dll
 0000:fdace000       .debug$S                   00400000     mfc110:mfc110.dll
 0000:fdace000       .debug$S                   00400000     mfc110:mfc110.dll
 0000:fdace000       .debug$S                   00400000     mfc110:mfc110.dll
 0000:fdace000       .debug$S                   00400000     mfc110:mfc110.dll
 0000:fdace000       .debug$S                   00400000     mfc110:mfc110.dll
 0000:fdace000       .debug$S                   00400000     mfc110:mfc110.dll
 0000:fdace000       .debug$S                   00400000     mfc110:mfc110.dll
 0000:fdace000       .debug$S                   00400000     mfc110:mfc110.dll
 0000:fdace000       .debug$S                   00400000     mfc110:mfc110.dll
 0000:fdace000       .debug$S                   00400000     mfc110:mfc110.dll
 0000:fdace000       .debug$S                   00400000     mfc110:mfc110.dll
 0000:fdace000       .debug$S                   00400000     mfc110:mfc110.dll
 0000:fdace000       .debug$S                   00400000     mfc110:mfc110.dll
 0000:fdace000       .debug$S                   00400000     mfc110:mfc110.dll
 0000:fdace000       .debug$S                   00400000     mfc110:mfc110.dll
 0000:fdace000       .debug$S                   00400000     mfc110:mfc110.dll
 0000:fdace000       .debug$S                   00400000     mfc110:mfc110.dll
 0000:fdace000       .debug$S                   00400000     mfc110:mfc110.dll
 0000:fdace000       .debug$S                   00400000     mfc110:mfc110.dll
 0000:fdace000       .debug$S                   00400000     mfc110:mfc110.dll
 0000:fdace000       .debug$S                   00400000     mfc110:mfc110.dll
 0000:fdace000       .debug$S                   00400000     mfc110:mfc110.dll
 0000:fdace000       .debug$S                   00400000     mfc110:mfc110.dll
 0000:fdace000       .debug$S                   00400000     mfc110:mfc110.dll
 0000:fdace000       .debug$S                   00400000     mfc110:mfc110.dll
 0000:fdace000       .debug$S                   00400000     mfc110:mfc110.dll
 0000:fdace000       .debug$S                   00400000     mfc110:mfc110.dll
 0000:fdace000       .debug$S                   00400000     mfc110:mfc110.dll
 0000:fdace000       .debug$S                   00400000     mfc110:mfc110.dll
 0000:fdace000       .debug$S                   00400000     mfc110:mfc110.dll
 0000:fdace000       .debug$S                   00400000     mfc110:mfc110.dll
 0000:fdace000       .debug$S                   00400000     mfc110:mfc110.dll
 0000:fdace000       .debug$S                   00400000     mfc110:mfc110.dll
 0000:fdace000       .debug$S                   00400000     mfc110:mfc110.dll
 0000:fdace000       .debug$S                   00400000     mfc110:mfc110.dll
 0000:fdace000       .debug$S                   00400000     mfc110:mfc110.dll
 0000:fdace000       .debug$S                   00400000     mfc110:mfc110.dll
 0000:fdace000       .debug$S                   00400000     mfc110:mfc110.dll
 0000:fdace000       .debug$S                   00400000     mfc110:mfc110.dll
 0000:fdace000       .debug$S                   00400000     mfc110:mfc110.dll
 0000:fdace000       .debug$S                   00400000     mfc110:mfc110.dll
 0000:fdace000       .debug$S                   00400000     mfc110:mfc110.dll
 0000:fdace000       .debug$S                   00400000     mfc110:mfc110.dll
 0000:fdace000       .debug$S                   00400000     mfc110:mfc110.dll
 0000:fdace000       .debug$S                   00400000     mfc110:mfc110.dll
 0000:fdace000       .debug$S                   00400000     mfc110:mfc110.dll
 0000:fdace000       .debug$S                   00400000     mfc110:mfc110.dll
 0000:fdace000       .debug$S                   00400000     mfc110:mfc110.dll
 0000:fdace000       .debug$S                   00400000     mfc110:mfc110.dll
 0000:fdace000       .debug$S                   00400000     mfc110:mfc110.dll
 0000:fdace000       .debug$S                   00400000     mfc110:mfc110.dll
 0000:fdace000       .debug$S                   00400000     mfc110:mfc110.dll
 0000:fdace000       .debug$S                   00400000     mfc110:mfc110.dll
 0000:fdace000       .debug$S                   00400000     mfc110:mfc110.dll
 0000:fdace000       .debug$S                   00400000     mfc110:mfc110.dll
 0000:fdace000       .debug$S                   00400000     mfc110:mfc110.dll
 0000:fdace000       .debug$S                   00400000     mfc110:mfc110.dll
 0000:fdace000       .debug$S                   00400000     mfc110:mfc110.dll
 0000:fdace000       .debug$S                   00400000     mfc110:mfc110.dll
 0000:fdace000       .debug$S                   00400000     mfc110:mfc110.dll
 0000:fdace000       .debug$S                   00400000     mfc110:mfc110.dll
 0000:fdace000       .debug$S                   00400000     mfc110:mfc110.dll
 0000:fdace000       .debug$S                   00400000     mfc110:mfc110.dll
 0000:fdace000       .debug$S                   00400000     mfc110:mfc110.dll
 0000:fdace000       .debug$S                   00400000     mfc110:mfc110.dll
 0001:00000a12       __catch$?_Copy@?$basic_string@DU?$char_traits@D@std@@V?$allocator@D@2@@std@@QAEXII@Z$0 00401a12 f i * CIL library *:* CIL module *
 0001:00000a48       __catch$?_Copy@?$basic_string@DU?$char_traits@D@std@@V?$allocator@D@2@@std@@QAEXII@Z$1 00401a48 f i * CIL library *:* CIL module *
 0001:00000dd0       ??$saturate_cast@H@cv@@YAHH@Z 00401dd0 f i * CIL library *:* CIL module *
 0001:00001a30       __catch$??1CGdiObject@@UAE@XZ$0 00402a30 f i * CIL library *:* CIL module *
 0001:000042b8       __catch$?_Buyheadnode@?$_Tree_alloc@$0A@U?$_Tree_base_types@U?$pair@$$CBIN@std@@V?$allocator@U?$pair@$$CBIN@std@@@2@@std@@@std@@QAEPAU?$_Tree_node@U?$pair@$$CBIN@std@@PAX@2@XZ$0 004052b8 f i * CIL library *:* CIL module *
 0001:00004ce0       $LN10                      00405ce0     * CIL library *:* CIL module *
 0001:00004cf0       $LN9                       00405cf0     * CIL library *:* CIL module *
 0001:00007760       ?cvSize@@YA?AUCvSize@@HH@Z 00408760 f   * CIL library *:* CIL module *
 0001:0000c8f0       $LN10                      0040d8f0     * CIL library *:* CIL module *
 0001:0000dc88       $LN31                      0040ec88     * CIL library *:* CIL module *
 0001:0000dcbc       $LN29                      0040ecbc     * CIL library *:* CIL module *
 0001:0000df0c       $LN32                      0040ef0c     * CIL library *:* CIL module *
 0001:0000f140       $LN28                      00410140     * CIL library *:* CIL module *
 0001:0000f340       $LN28                      00410340     * CIL library *:* CIL module *
 0001:0000f6f4       $LN17                      004106f4     * CIL library *:* CIL module *
 0001:0000f874       $LN17                      00410874     * CIL library *:* CIL module *
 0001:00010e54       __catch$?GetPicture@CEndoScopeMFCDlg@@QAEPAEXZ$0 00411e54 f   * CIL library *:* CIL module *
 0001:00012b00       __catch$?_Buynode0@?$_List_alloc@$0A@U?$_List_base_types@PAEV?$allocator@PAE@std@@@std@@@std@@QAEPAU?$_List_node@PAEPAX@2@PAU32@0@Z$0 00413b00 f i * CIL library *:* CIL module *
 0001:00012f09       __catch$??$?6U?$char_traits@D@std@@@std@@YAAAV?$basic_ostream@DU?$char_traits@D@std@@@0@AAV10@PBD@Z$0 00413f09 f i * CIL library *:* CIL module *
 0001:0001350e       __catch$??$getline@DU?$char_traits@D@std@@V?$allocator@D@2@@std@@YAAAV?$basic_istream@DU?$char_traits@D@std@@@0@$$QAV10@AAV?$basic_string@DU?$char_traits@D@std@@V?$allocator@D@2@@0@D@Z$0 0041450e f i * CIL library *:* CIL module *
 0001:00013631       __catch$??$_Buynode@ABQAE@?$_List_buy@PAEV?$allocator@PAE@std@@@std@@QAEPAU?$_List_node@PAEPAX@1@PAU21@0ABQAE@Z$0 00414631 f i * CIL library *:* CIL module *
 0001:00016395       __catch$?SendData@CProcessCard@@QAEHPAEH@Z$0 00417395 f   * CIL library *:* CIL module *
 0001:0001639b       __catch$?SendData@CProcessCard@@QAEHPAEH@Z$1 0041739b f   * CIL library *:* CIL module *
 0001:000163a1       __catch$?SendData@CProcessCard@@QAEHPAEH@Z$2 004173a1 f   * CIL library *:* CIL module *
 0001:000168e6       __catch$?SendData@CVideoComIO@@QAEHPAEH@Z$0 004178e6 f   * CIL library *:* CIL module *
 0001:000168ec       __catch$?SendData@CVideoComIO@@QAEHPAEH@Z$1 004178ec f   * CIL library *:* CIL module *
 0001:000168f2       __catch$?SendData@CVideoComIO@@QAEHPAEH@Z$2 004178f2 f   * CIL library *:* CIL module *
 0001:000176a6       _pre_c_init                004186a6 f   msvcrt:crtexew.obj
 0001:0001775f       _pre_cpp_init              0041875f f   msvcrt:crtexew.obj
 0001:000177b4       ___tmainCRTStartup         004187b4 f   msvcrt:crtexew.obj
 0001:00017a50       $$000000                   00418a50     msvcrt:sehprolg4.obj
 0001:00017e90       __ehhandler$?_Copy@?$basic_string@DU?$char_traits@D@std@@V?$allocator@D@2@@std@@QAEXII@Z 00418e90 f   * CIL library *:* CIL module *
 0001:00017ec0       __unwindfunclet$??1CDialogEx@@UAE@XZ$0 00418ec0 f   * CIL library *:* CIL module *
 0001:00017ec9       __unwindfunclet$??1CDialogEx@@UAE@XZ$1 00418ec9 f   * CIL library *:* CIL module *
 0001:00017ed7       __ehhandler$??1CDialogEx@@UAE@XZ 00418ed7 f   * CIL library *:* CIL module *
 0001:00017f00       __unwindfunclet$??1CGdiObject@@UAE@XZ$2 00418f00 f   * CIL library *:* CIL module *
 0001:00017f0b       __unwindfunclet$??1CGdiObject@@UAE@XZ$3 00418f0b f   * CIL library *:* CIL module *
 0001:00017f17       __ehhandler$??1CGdiObject@@UAE@XZ 00418f17 f   * CIL library *:* CIL module *
 0001:00017f40       __unwindfunclet$??HATL@@YA?AV?$CStringT@DV?$StrTraitMFC_DLL@DV?$ChTraitsCRT@D@ATL@@@@@0@ABV10@PBD@Z$0 00418f40 f   * CIL library *:* CIL module *
 0001:00017f40       __unwindfunclet$??HATL@@YA?AV?$CStringT@DV?$StrTraitMFC_DLL@DV?$ChTraitsCRT@D@ATL@@@@@0@ABV10@0@Z$0 00418f40 f   * CIL library *:* CIL module *
 0001:00017f49       __ehhandler$??HATL@@YA?AV?$CStringT@DV?$StrTraitMFC_DLL@DV?$ChTraitsCRT@D@ATL@@@@@0@ABV10@PBD@Z 00418f49 f   * CIL library *:* CIL module *
 0001:00017f49       __ehhandler$??HATL@@YA?AV?$CStringT@DV?$StrTraitMFC_DLL@DV?$ChTraitsCRT@D@ATL@@@@@0@ABV10@0@Z 00418f49 f   * CIL library *:* CIL module *
 0001:00017f70       __unwindfunclet$?OnBnClickedOk@CSetPSW@@QAEXXZ$0 00418f70 f   * CIL library *:* CIL module *
 0001:00017f79       __unwindfunclet$?OnBnClickedOk@CSetPSW@@QAEXXZ$1 00418f79 f   * CIL library *:* CIL module *
 0001:00017f82       __unwindfunclet$?OnBnClickedOk@CSetPSW@@QAEXXZ$2 00418f82 f   * CIL library *:* CIL module *
 0001:00017f8b       __unwindfunclet$?OnBnClickedOk@CSetPSW@@QAEXXZ$3 00418f8b f   * CIL library *:* CIL module *
 0001:00017f94       __unwindfunclet$?OnBnClickedOk@CSetPSW@@QAEXXZ$4 00418f94 f   * CIL library *:* CIL module *
 0001:00017f9d       __unwindfunclet$?OnBnClickedOk@CSetPSW@@QAEXXZ$5 00418f9d f   * CIL library *:* CIL module *
 0001:00017fa6       __unwindfunclet$?OnBnClickedOk@CSetPSW@@QAEXXZ$6 00418fa6 f   * CIL library *:* CIL module *
 0001:00017faf       __ehhandler$?OnBnClickedOk@CSetPSW@@QAEXXZ 00418faf f   * CIL library *:* CIL module *
 0001:00017fe0       __unwindfunclet$??$construct@PAEABQAE@?$allocator@U?$_List_node@PAEPAX@std@@@std@@QAEXPAPAEABQAE@Z$0 00418fe0 f   * CIL library *:* CIL module *
 0001:00017fe0       __unwindfunclet$??$construct@PAU?$_Tree_node@U?$pair@$$CBIN@std@@PAX@std@@AAPAU12@@?$allocator@U?$_Tree_node@U?$pair@$$CBIN@std@@PAX@std@@@std@@QAEXPAPAU?$_Tree_node@U?$pair@$$CBIN@std@@PAX@1@AAPAU21@@Z$0 00418fe0 f   * CIL library *:* CIL module *
 0001:00017fe0       __unwindfunclet$??$construct@PAU?$_List_node@PAEPAX@std@@AAPAU12@@?$allocator@U?$_List_node@PAEPAX@std@@@std@@QAEXPAPAU?$_List_node@PAEPAX@1@AAPAU21@@Z$0 00418fe0 f   * CIL library *:* CIL module *
 0001:00017fe0       __unwindfunclet$?construct@?$allocator@V?$basic_string@DU?$char_traits@D@std@@V?$allocator@D@2@@std@@@std@@QAEXPAV?$basic_string@DU?$char_traits@D@std@@V?$allocator@D@2@@2@ABV32@@Z$0 00418fe0 f   * CIL library *:* CIL module *
 0001:00017fe0       __unwindfunclet$??$construct@PADAAPAD@?$allocator@D@std@@QAEXPAPADAAPAD@Z$0 00418fe0 f   * CIL library *:* CIL module *
 0001:00017fe0       __unwindfunclet$??$construct@U_Container_proxy@std@@U12@@?$allocator@U_Container_proxy@std@@@std@@QAEXPAU_Container_proxy@1@$$QAU21@@Z$0 00418fe0 f   * CIL library *:* CIL module *
 0001:00017ff1       __ehhandler$?construct@?$allocator@V?$basic_string@DU?$char_traits@D@std@@V?$allocator@D@2@@std@@@std@@QAEXPAV?$basic_string@DU?$char_traits@D@std@@V?$allocator@D@2@@2@ABV32@@Z 00418ff1 f   * CIL library *:* CIL module *
 0001:00017ff1       __ehhandler$??$construct@PAEABQAE@?$allocator@U?$_List_node@PAEPAX@std@@@std@@QAEXPAPAEABQAE@Z 00418ff1 f   * CIL library *:* CIL module *
 0001:00017ff1       __ehhandler$??$construct@U_Container_proxy@std@@U12@@?$allocator@U_Container_proxy@std@@@std@@QAEXPAU_Container_proxy@1@$$QAU21@@Z 00418ff1 f   * CIL library *:* CIL module *
 0001:00017ff1       __ehhandler$??$construct@PAU?$_List_node@PAEPAX@std@@AAPAU12@@?$allocator@U?$_List_node@PAEPAX@std@@@std@@QAEXPAPAU?$_List_node@PAEPAX@1@AAPAU21@@Z 00418ff1 f   * CIL library *:* CIL module *
 0001:00017ff1       __ehhandler$??$construct@PADAAPAD@?$allocator@D@std@@QAEXPAPADAAPAD@Z 00418ff1 f   * CIL library *:* CIL module *
 0001:00017ff1       __ehhandler$??$construct@PAU?$_Tree_node@U?$pair@$$CBIN@std@@PAX@std@@AAPAU12@@?$allocator@U?$_Tree_node@U?$pair@$$CBIN@std@@PAX@std@@@std@@QAEXPAPAU?$_Tree_node@U?$pair@$$CBIN@std@@PAX@1@AAPAU21@@Z 00418ff1 f   * CIL library *:* CIL module *
 0001:00018010       __unwindfunclet$??0?$_Deque_alloc@$0A@U?$_Deque_base_types@PAEV?$allocator@PAE@std@@@std@@@std@@QAE@ABV?$allocator@PAE@1@@Z$0 00419010 f   * CIL library *:* CIL module *
 0001:00018010       __unwindfunclet$??0?$_Deque_alloc@$0A@U?$_Deque_base_types@V?$basic_string@DU?$char_traits@D@std@@V?$allocator@D@2@@std@@V?$allocator@V?$basic_string@DU?$char_traits@D@std@@V?$allocator@D@2@@std@@@2@@std@@@std@@QAE@ABV?$allocator@V?$basic_string@DU?$char_traits@D@std@@V?$allocator@D@2@@std@@@1@@Z$0 00419010 f   * CIL library *:* CIL module *
 0001:00018018       __ehhandler$??0?$_Deque_alloc@$0A@U?$_Deque_base_types@V?$basic_string@DU?$char_traits@D@std@@V?$allocator@D@2@@std@@V?$allocator@V?$basic_string@DU?$char_traits@D@std@@V?$allocator@D@2@@std@@@2@@std@@@std@@QAE@ABV?$allocator@V?$basic_string@DU?$char_traits@D@std@@V?$allocator@D@2@@std@@@1@@Z 00419018 f   * CIL library *:* CIL module *
 0001:00018018       __ehhandler$??0?$_Deque_alloc@$0A@U?$_Deque_base_types@PAEV?$allocator@PAE@std@@@std@@@std@@QAE@ABV?$allocator@PAE@1@@Z 00419018 f   * CIL library *:* CIL module *
 0001:00018040       __unwindfunclet$?ReadConfig@@YA_NXZ$0 00419040 f   * CIL library *:* CIL module *
 0001:00018049       __unwindfunclet$?ReadConfig@@YA_NXZ$1 00419049 f   * CIL library *:* CIL module *
 0001:00018052       __unwindfunclet$?ReadConfig@@YA_NXZ$2 00419052 f   * CIL library *:* CIL module *
 0001:0001805b       __unwindfunclet$?ReadConfig@@YA_NXZ$3 0041905b f   * CIL library *:* CIL module *
 0001:00018064       __ehhandler$?ReadConfig@@YA_NXZ 00419064 f   * CIL library *:* CIL module *
 0001:00018090       __unwindfunclet$?ReturnPath@@YA?AV?$CStringT@DV?$StrTraitMFC_DLL@DV?$ChTraitsCRT@D@ATL@@@@@ATL@@XZ$0 00419090 f   * CIL library *:* CIL module *
 0001:00018099       __unwindfunclet$?ReturnPath@@YA?AV?$CStringT@DV?$StrTraitMFC_DLL@DV?$ChTraitsCRT@D@ATL@@@@@ATL@@XZ$1 00419099 f   * CIL library *:* CIL module *
 0001:000180a2       __ehhandler$?ReturnPath@@YA?AV?$CStringT@DV?$StrTraitMFC_DLL@DV?$ChTraitsCRT@D@ATL@@@@@ATL@@XZ 004190a2 f   * CIL library *:* CIL module *
 0001:000180d0       __unwindfunclet$?SetConfig@@YAXV?$CStringT@DV?$StrTraitMFC_DLL@DV?$ChTraitsCRT@D@ATL@@@@@ATL@@N@Z$0 004190d0 f   * CIL library *:* CIL module *
 0001:000180d9       __unwindfunclet$?SetConfig@@YAXV?$CStringT@DV?$StrTraitMFC_DLL@DV?$ChTraitsCRT@D@ATL@@@@@ATL@@N@Z$1 004190d9 f   * CIL library *:* CIL module *
 0001:000180e2       __unwindfunclet$?SetConfig@@YAXV?$CStringT@DV?$StrTraitMFC_DLL@DV?$ChTraitsCRT@D@ATL@@@@@ATL@@N@Z$2 004190e2 f   * CIL library *:* CIL module *
 0001:000180eb       __unwindfunclet$?SetConfig@@YAXV?$CStringT@DV?$StrTraitMFC_DLL@DV?$ChTraitsCRT@D@ATL@@@@@ATL@@N@Z$3 004190eb f   * CIL library *:* CIL module *
 0001:000180f6       __unwindfunclet$?SetConfig@@YAXV?$CStringT@DV?$StrTraitMFC_DLL@DV?$ChTraitsCRT@D@ATL@@@@@ATL@@N@Z$4 004190f6 f   * CIL library *:* CIL module *
 0001:000180fe       __ehhandler$?SetConfig@@YAXV?$CStringT@DV?$StrTraitMFC_DLL@DV?$ChTraitsCRT@D@ATL@@@@@ATL@@N@Z 004190fe f   * CIL library *:* CIL module *
 0001:00018130       __ehhandler$?_Buyheadnode@?$_Tree_alloc@$0A@U?$_Tree_base_types@U?$pair@$$CBIN@std@@V?$allocator@U?$pair@$$CBIN@std@@@2@@std@@@std@@QAEPAU?$_Tree_node@U?$pair@$$CBIN@std@@PAX@2@XZ 00419130 f   * CIL library *:* CIL module *
 0001:00018160       __unwindfunclet$??0CEDSCapture@@QAE@XZ$0 00419160 f   * CIL library *:* CIL module *
 0001:00018160       __unwindfunclet$??1CEDSCapture@@UAE@XZ$0 00419160 f   * CIL library *:* CIL module *
 0001:00018169       __unwindfunclet$??1CEDSCapture@@UAE@XZ$1 00419169 f   * CIL library *:* CIL module *
 0001:00018169       __unwindfunclet$??0CEDSCapture@@QAE@XZ$1 00419169 f   * CIL library *:* CIL module *
 0001:00018174       __ehhandler$??0CEDSCapture@@QAE@XZ 00419174 f   * CIL library *:* CIL module *
 0001:00018174       __ehhandler$??1CEDSCapture@@UAE@XZ 00419174 f   * CIL library *:* CIL module *
 0001:00018190       __unwindfunclet$?FindCaptureDevice@CEDSCapture@@IAEJPAPAUIBaseFilter@@@Z$0 00419190 f   * CIL library *:* CIL module *
 0001:00018198       __unwindfunclet$?FindCaptureDevice@CEDSCapture@@IAEJPAPAUIBaseFilter@@@Z$1 00419198 f   * CIL library *:* CIL module *
 0001:000181a0       __unwindfunclet$?FindCaptureDevice@CEDSCapture@@IAEJPAPAUIBaseFilter@@@Z$2 004191a0 f   * CIL library *:* CIL module *
 0001:000181a8       __ehhandler$?FindCaptureDevice@CEDSCapture@@IAEJPAPAUIBaseFilter@@@Z 004191a8 f   * CIL library *:* CIL module *
 0001:000181d0       __unwindfunclet$?Init@CEDSCapture@@QAEJHPAUHWND__@@@Z$0 004191d0 f   * CIL library *:* CIL module *
 0001:000181d8       __ehhandler$?Init@CEDSCapture@@QAEJHPAUHWND__@@@Z 004191d8 f   * CIL library *:* CIL module *
 0001:00018200       __unwindfunclet$?InitInstance@CEndoScopeMFCApp@@UAEHXZ$0 00419200 f   * CIL library *:* CIL module *
 0001:0001820d       __unwindfunclet$?InitInstance@CEndoScopeMFCApp@@UAEHXZ$1 0041920d f   * CIL library *:* CIL module *
 0001:00018218       __ehhandler$?InitInstance@CEndoScopeMFCApp@@UAEHXZ 00419218 f   * CIL library *:* CIL module *
 0001:00018240       __unwindfunclet$??$?6U?$char_traits@D@std@@@std@@YAAAV?$basic_ostream@DU?$char_traits@D@std@@@0@AAV10@PBD@Z$2 00419240 f   * CIL library *:* CIL module *
 0001:00018248       __ehhandler$??$?6U?$char_traits@D@std@@@std@@YAAAV?$basic_ostream@DU?$char_traits@D@std@@@0@AAV10@PBD@Z 00419248 f   * CIL library *:* CIL module *
 0001:00018270       __ehhandler$??$_Buynode@ABQAE@?$_List_buy@PAEV?$allocator@PAE@std@@@std@@QAEPAU?$_List_node@PAEPAX@1@PAU21@0ABQAE@Z 00419270 f   * CIL library *:* CIL module *
 0001:00018290       __unwindfunclet$??$getline@DU?$char_traits@D@std@@V?$allocator@D@2@@std@@YAAAV?$basic_istream@DU?$char_traits@D@std@@@0@$$QAV10@AAV?$basic_string@DU?$char_traits@D@std@@V?$allocator@D@2@@0@D@Z$2 00419290 f   * CIL library *:* CIL module *
 0001:00018298       __ehhandler$??$getline@DU?$char_traits@D@std@@V?$allocator@D@2@@std@@YAAAV?$basic_istream@DU?$char_traits@D@std@@@0@$$QAV10@AAV?$basic_string@DU?$char_traits@D@std@@V?$allocator@D@2@@0@D@Z 00419298 f   * CIL library *:* CIL module *
 0001:000182c0       __unwindfunclet$??$use_facet@V?$codecvt@DDH@std@@@std@@YAABV?$codecvt@DDH@0@ABVlocale@0@@Z$0 004192c0 f   * CIL library *:* CIL module *
 0001:000182c9       __ehhandler$??$use_facet@V?$codecvt@DDH@std@@@std@@YAABV?$codecvt@DDH@0@ABVlocale@0@@Z 004192c9 f   * CIL library *:* CIL module *
 0001:000182f0       __unwindfunclet$??0?$basic_filebuf@DU?$char_traits@D@std@@@std@@QAE@PAU_iobuf@@@Z$0 004192f0 f   * CIL library *:* CIL module *
 0001:000182f9       __ehhandler$??0?$basic_filebuf@DU?$char_traits@D@std@@@std@@QAE@PAU_iobuf@@@Z 004192f9 f   * CIL library *:* CIL module *
 0001:00018320       __unwindfunclet$??0?$basic_ifstream@DU?$char_traits@D@std@@@std@@QAE@PBDHH@Z$0 00419320 f   * CIL library *:* CIL module *
 0001:0001833d       __unwindfunclet$??0?$basic_ifstream@DU?$char_traits@D@std@@@std@@QAE@PBDHH@Z$1 0041933d f   * CIL library *:* CIL module *
 0001:00018349       __unwindfunclet$??0?$basic_ifstream@DU?$char_traits@D@std@@@std@@QAE@PBDHH@Z$2 00419349 f   * CIL library *:* CIL module *
 0001:00018354       __ehhandler$??0?$basic_ifstream@DU?$char_traits@D@std@@@std@@QAE@PBDHH@Z 00419354 f   * CIL library *:* CIL module *
 0001:00018370       __unwindfunclet$??0?$basic_ofstream@DU?$char_traits@D@std@@@std@@QAE@PBDHH@Z$0 00419370 f   * CIL library *:* CIL module *
 0001:0001838d       __unwindfunclet$??0?$basic_ofstream@DU?$char_traits@D@std@@@std@@QAE@PBDHH@Z$1 0041938d f   * CIL library *:* CIL module *
 0001:00018399       __unwindfunclet$??0?$basic_ofstream@DU?$char_traits@D@std@@@std@@QAE@PBDHH@Z$2 00419399 f   * CIL library *:* CIL module *
 0001:000183a4       __ehhandler$??0?$basic_ofstream@DU?$char_traits@D@std@@@std@@QAE@PBDHH@Z 004193a4 f   * CIL library *:* CIL module *
 0001:000183c0       __unwindfunclet$??0CAboutDlg@@QAE@XZ$0 004193c0 f   * CIL library *:* CIL module *
 0001:000183c8       __unwindfunclet$??0CAboutDlg@@QAE@XZ$1 004193c8 f   * CIL library *:* CIL module *
 0001:000183d7       __unwindfunclet$??0CAboutDlg@@QAE@XZ$2 004193d7 f   * CIL library *:* CIL module *
 0001:000183e6       __ehhandler$??0CAboutDlg@@QAE@XZ 004193e6 f   * CIL library *:* CIL module *
 0001:00018410       __unwindfunclet$??0CEndoScopeMFCDlg@@QAE@PAVCWnd@@@Z$0 00419410 f   * CIL library *:* CIL module *
 0001:00018418       __unwindfunclet$??0CEndoScopeMFCDlg@@QAE@PAVCWnd@@@Z$1 00419418 f   * CIL library *:* CIL module *
 0001:00018427       __unwindfunclet$??0CEndoScopeMFCDlg@@QAE@PAVCWnd@@@Z$2 00419427 f   * CIL library *:* CIL module *
 0001:00018435       __unwindfunclet$??0CEndoScopeMFCDlg@@QAE@PAVCWnd@@@Z$3 00419435 f   * CIL library *:* CIL module *
 0001:00018444       __unwindfunclet$??0CEndoScopeMFCDlg@@QAE@PAVCWnd@@@Z$4 00419444 f   * CIL library *:* CIL module *
 0001:00018453       __unwindfunclet$??0CEndoScopeMFCDlg@@QAE@PAVCWnd@@@Z$5 00419453 f   * CIL library *:* CIL module *
 0001:00018462       __unwindfunclet$??0CEndoScopeMFCDlg@@QAE@PAVCWnd@@@Z$6 00419462 f   * CIL library *:* CIL module *
 0001:00018470       __unwindfunclet$??0CEndoScopeMFCDlg@@QAE@PAVCWnd@@@Z$7 00419470 f   * CIL library *:* CIL module *
 0001:0001847e       __unwindfunclet$??0CEndoScopeMFCDlg@@QAE@PAVCWnd@@@Z$8 0041947e f   * CIL library *:* CIL module *
 0001:0001848c       __unwindfunclet$??0CEndoScopeMFCDlg@@QAE@PAVCWnd@@@Z$9 0041948c f   * CIL library *:* CIL module *
 0001:0001849a       __unwindfunclet$??0CEndoScopeMFCDlg@@QAE@PAVCWnd@@@Z$10 0041949a f   * CIL library *:* CIL module *
 0001:000184a8       __unwindfunclet$??0CEndoScopeMFCDlg@@QAE@PAVCWnd@@@Z$11 004194a8 f   * CIL library *:* CIL module *
 0001:000184b6       __unwindfunclet$??0CEndoScopeMFCDlg@@QAE@PAVCWnd@@@Z$12 004194b6 f   * CIL library *:* CIL module *
 0001:000184c4       __ehhandler$??0CEndoScopeMFCDlg@@QAE@PAVCWnd@@@Z 004194c4 f   * CIL library *:* CIL module *
 0001:000184e0       __unwindfunclet$??0Mat@cv@@QAE@HHHPAXI@Z$0 004194e0 f   * CIL library *:* CIL module *
 0001:000184e8       __unwindfunclet$??0Mat@cv@@QAE@HHHPAXI@Z$1 004194e8 f   * CIL library *:* CIL module *
 0001:000184f0       __ehhandler$??0Mat@cv@@QAE@HHHPAXI@Z 004194f0 f   * CIL library *:* CIL module *
 0001:00018510       __unwindfunclet$??0_OutputArray@cv@@QAE@AAVMat@1@@Z$0 00419510 f   * CIL library *:* CIL module *
 0001:00018518       __ehhandler$??0_OutputArray@cv@@QAE@AAVMat@1@@Z 00419518 f   * CIL library *:* CIL module *
 0001:00018540       __unwindfunclet$??0sentry@?$basic_istream@DU?$char_traits@D@std@@@std@@QAE@AAV12@_N@Z$0 00419540 f   * CIL library *:* CIL module *
 0001:00018540       __unwindfunclet$??0sentry@?$basic_ostream@DU?$char_traits@D@std@@@std@@QAE@AAV12@@Z$0 00419540 f   * CIL library *:* CIL module *
 0001:00018548       __ehhandler$??0sentry@?$basic_ostream@DU?$char_traits@D@std@@@std@@QAE@AAV12@@Z 00419548 f   * CIL library *:* CIL module *
 0001:00018548       __ehhandler$??0sentry@?$basic_istream@DU?$char_traits@D@std@@@std@@QAE@AAV12@_N@Z 00419548 f   * CIL library *:* CIL module *
 0001:00018570       __unwindfunclet$??1CEndoScopeMFCDlg@@UAE@XZ$0 00419570 f   * CIL library *:* CIL module *
 0001:00018578       __unwindfunclet$??1CEndoScopeMFCDlg@@UAE@XZ$1 00419578 f   * CIL library *:* CIL module *
 0001:00018587       __unwindfunclet$??1CEndoScopeMFCDlg@@UAE@XZ$2 00419587 f   * CIL library *:* CIL module *
 0001:00018595       __unwindfunclet$??1CEndoScopeMFCDlg@@UAE@XZ$3 00419595 f   * CIL library *:* CIL module *
 0001:000185a4       __unwindfunclet$??1CEndoScopeMFCDlg@@UAE@XZ$4 004195a4 f   * CIL library *:* CIL module *
 0001:000185b3       __unwindfunclet$??1CEndoScopeMFCDlg@@UAE@XZ$5 004195b3 f   * CIL library *:* CIL module *
 0001:000185c2       __unwindfunclet$??1CEndoScopeMFCDlg@@UAE@XZ$6 004195c2 f   * CIL library *:* CIL module *
 0001:000185d0       __unwindfunclet$??1CEndoScopeMFCDlg@@UAE@XZ$7 004195d0 f   * CIL library *:* CIL module *
 0001:000185de       __unwindfunclet$??1CEndoScopeMFCDlg@@UAE@XZ$8 004195de f   * CIL library *:* CIL module *
 0001:000185ec       __unwindfunclet$??1CEndoScopeMFCDlg@@UAE@XZ$9 004195ec f   * CIL library *:* CIL module *
 0001:000185fa       __unwindfunclet$??1CEndoScopeMFCDlg@@UAE@XZ$10 004195fa f   * CIL library *:* CIL module *
 0001:00018608       __unwindfunclet$??1CEndoScopeMFCDlg@@UAE@XZ$11 00419608 f   * CIL library *:* CIL module *
 0001:00018616       __unwindfunclet$??1CEndoScopeMFCDlg@@UAE@XZ$12 00419616 f   * CIL library *:* CIL module *
 0001:00018624       __ehhandler$??1CEndoScopeMFCDlg@@UAE@XZ 00419624 f   * CIL library *:* CIL module *
 0001:00018640       __unwindfunclet$?CalWhilteLamda@CEndoScopeMFCDlg@@QAEXPAE@Z$0 00419640 f   * CIL library *:* CIL module *
 0001:0001864b       __unwindfunclet$?CalWhilteLamda@CEndoScopeMFCDlg@@QAEXPAE@Z$1 0041964b f   * CIL library *:* CIL module *
 0001:00018654       __unwindfunclet$?CalWhilteLamda@CEndoScopeMFCDlg@@QAEXPAE@Z$2 00419654 f   * CIL library *:* CIL module *
 0001:0001865f       __unwindfunclet$?CalWhilteLamda@CEndoScopeMFCDlg@@QAEXPAE@Z$3 0041965f f   * CIL library *:* CIL module *
 0001:00018667       __unwindfunclet$?CalWhilteLamda@CEndoScopeMFCDlg@@QAEXPAE@Z$4 00419667 f   * CIL library *:* CIL module *
 0001:00018672       __unwindfunclet$?CalWhilteLamda@CEndoScopeMFCDlg@@QAEXPAE@Z$5 00419672 f   * CIL library *:* CIL module *
 0001:0001867d       __ehhandler$?CalWhilteLamda@CEndoScopeMFCDlg@@QAEXPAE@Z 0041967d f   * CIL library *:* CIL module *
 0001:000186b0       __unwindfunclet$?CutDirFileAPI@@YAHV?$CStringT@DV?$StrTraitMFC_DLL@DV?$ChTraitsCRT@D@ATL@@@@@ATL@@0@Z$0 004196b0 f   * CIL library *:* CIL module *
 0001:000186b9       __unwindfunclet$?CutDirFileAPI@@YAHV?$CStringT@DV?$StrTraitMFC_DLL@DV?$ChTraitsCRT@D@ATL@@@@@ATL@@0@Z$1 004196b9 f   * CIL library *:* CIL module *
 0001:000186c2       __unwindfunclet$?CutDirFileAPI@@YAHV?$CStringT@DV?$StrTraitMFC_DLL@DV?$ChTraitsCRT@D@ATL@@@@@ATL@@0@Z$2 004196c2 f   * CIL library *:* CIL module *
 0001:000186ce       __unwindfunclet$?CutDirFileAPI@@YAHV?$CStringT@DV?$StrTraitMFC_DLL@DV?$ChTraitsCRT@D@ATL@@@@@ATL@@0@Z$3 004196ce f   * CIL library *:* CIL module *
 0001:000186da       __unwindfunclet$?CutDirFileAPI@@YAHV?$CStringT@DV?$StrTraitMFC_DLL@DV?$ChTraitsCRT@D@ATL@@@@@ATL@@0@Z$4 004196da f   * CIL library *:* CIL module *
 0001:000186e6       __ehhandler$?CutDirFileAPI@@YAHV?$CStringT@DV?$StrTraitMFC_DLL@DV?$ChTraitsCRT@D@ATL@@@@@ATL@@0@Z 004196e6 f   * CIL library *:* CIL module *
 0001:00018710       __unwindfunclet$?Format@COleDateTime@ATL@@QBE?AV?$CStringT@DV?$StrTraitMFC_DLL@DV?$ChTraitsCRT@D@ATL@@@@@2@PBD@Z$1 00419710 f   * CIL library *:* CIL module *
 0001:00018719       __unwindfunclet$?Format@COleDateTime@ATL@@QBE?AV?$CStringT@DV?$StrTraitMFC_DLL@DV?$ChTraitsCRT@D@ATL@@@@@2@PBD@Z$2 00419719 f   * CIL library *:* CIL module *
 0001:00018722       __unwindfunclet$?Format@COleDateTime@ATL@@QBE?AV?$CStringT@DV?$StrTraitMFC_DLL@DV?$ChTraitsCRT@D@ATL@@@@@2@PBD@Z$3 00419722 f   * CIL library *:* CIL module *
 0001:0001872b       __ehhandler$?Format@COleDateTime@ATL@@QBE?AV?$CStringT@DV?$StrTraitMFC_DLL@DV?$ChTraitsCRT@D@ATL@@@@@2@PBD@Z 0041972b f   * CIL library *:* CIL module *
 0001:00018750       __ehhandler$?GetPicture@CEndoScopeMFCDlg@@QAEPAEXZ 00419750 f   * CIL library *:* CIL module *
 0001:00018770       __unwindfunclet$?GetSaveImgPath@CEndoScopeMFCDlg@@QAE?AV?$basic_string@DU?$char_traits@D@std@@V?$allocator@D@2@@std@@H@Z$0 00419770 f   * CIL library *:* CIL module *
 0001:00018779       __unwindfunclet$?GetSaveImgPath@CEndoScopeMFCDlg@@QAE?AV?$basic_string@DU?$char_traits@D@std@@V?$allocator@D@2@@std@@H@Z$1 00419779 f   * CIL library *:* CIL module *
 0001:00018782       __unwindfunclet$?GetSaveImgPath@CEndoScopeMFCDlg@@QAE?AV?$basic_string@DU?$char_traits@D@std@@V?$allocator@D@2@@std@@H@Z$2 00419782 f   * CIL library *:* CIL module *
 0001:0001878b       __unwindfunclet$?GetSaveImgPath@CEndoScopeMFCDlg@@QAE?AV?$basic_string@DU?$char_traits@D@std@@V?$allocator@D@2@@std@@H@Z$3 0041978b f   * CIL library *:* CIL module *
 0001:00018794       __unwindfunclet$?GetSaveImgPath@CEndoScopeMFCDlg@@QAE?AV?$basic_string@DU?$char_traits@D@std@@V?$allocator@D@2@@std@@H@Z$4 00419794 f   * CIL library *:* CIL module *
 0001:0001879d       __unwindfunclet$?GetSaveImgPath@CEndoScopeMFCDlg@@QAE?AV?$basic_string@DU?$char_traits@D@std@@V?$allocator@D@2@@std@@H@Z$5 0041979d f   * CIL library *:* CIL module *
 0001:000187a8       __ehhandler$?GetSaveImgPath@CEndoScopeMFCDlg@@QAE?AV?$basic_string@DU?$char_traits@D@std@@V?$allocator@D@2@@std@@H@Z 004197a8 f   * CIL library *:* CIL module *
 0001:000187d0       __unwindfunclet$?IniWhilteLamda@CEndoScopeMFCDlg@@QAEXXZ$0 004197d0 f   * CIL library *:* CIL module *
 0001:000187db       __unwindfunclet$?IniWhilteLamda@CEndoScopeMFCDlg@@QAEXXZ$1 004197db f   * CIL library *:* CIL module *
 0001:000187e3       __ehhandler$?IniWhilteLamda@CEndoScopeMFCDlg@@QAEXXZ 004197e3 f   * CIL library *:* CIL module *
 0001:00018810       __unwindfunclet$?InitParameter@CEndoScopeMFCDlg@@AAEXXZ$0 00419810 f   * CIL library *:* CIL module *
 0001:00018818       __unwindfunclet$?InitParameter@CEndoScopeMFCDlg@@AAEXXZ$1 00419818 f   * CIL library *:* CIL module *
 0001:00018823       __ehhandler$?InitParameter@CEndoScopeMFCDlg@@AAEXXZ 00419823 f   * CIL library *:* CIL module *
 0001:00018850       __unwindfunclet$?InitializeFormBoxLayout@CEndoScopeMFCDlg@@QAEXXZ$0 00419850 f   * CIL library *:* CIL module *
 0001:00018858       __ehhandler$?InitializeFormBoxLayout@CEndoScopeMFCDlg@@QAEXXZ 00419858 f   * CIL library *:* CIL module *
 0001:00018880       __unwindfunclet$?InitializePLC@CEndoScopeMFCDlg@@AAEXXZ$0 00419880 f   * CIL library *:* CIL module *
 0001:0001888c       __unwindfunclet$?InitializePLC@CEndoScopeMFCDlg@@AAEXXZ$1 0041988c f   * CIL library *:* CIL module *
 0001:00018895       __ehhandler$?InitializePLC@CEndoScopeMFCDlg@@AAEXXZ 00419895 f   * CIL library *:* CIL module *
 0001:000188c0       __unwindfunclet$?InitializecvWindow@CEndoScopeMFCDlg@@AAEXXZ$0 004198c0 f   * CIL library *:* CIL module *
 0001:000188c8       __unwindfunclet$?InitializecvWindow@CEndoScopeMFCDlg@@AAEXXZ$1 004198c8 f   * CIL library *:* CIL module *
 0001:000188d0       __ehhandler$?InitializecvWindow@CEndoScopeMFCDlg@@AAEXXZ 004198d0 f   * CIL library *:* CIL module *
 0001:000188f0       __unwindfunclet$?OnCtlData@CEndoScopeMFCDlg@@QAEJIJ@Z$0 004198f0 f   * CIL library *:* CIL module *
 0001:000188f8       __ehhandler$?OnCtlData@CEndoScopeMFCDlg@@QAEJIJ@Z 004198f8 f   * CIL library *:* CIL module *
 0001:00018920       __unwindfunclet$?OnInitDialog@CEndoScopeMFCDlg@@MAEHXZ$0 00419920 f   * CIL library *:* CIL module *
 0001:00018929       __ehhandler$?OnInitDialog@CEndoScopeMFCDlg@@MAEHXZ 00419929 f   * CIL library *:* CIL module *
 0001:00018950       __unwindfunclet$?OnPaint@CEndoScopeMFCDlg@@IAEXXZ$0 00419950 f   * CIL library *:* CIL module *
 0001:00018959       __ehhandler$?OnPaint@CEndoScopeMFCDlg@@IAEXXZ 00419959 f   * CIL library *:* CIL module *
 0001:00018980       __unwindfunclet$?OnSysCommand@CEndoScopeMFCDlg@@IAEXIJ@Z$0 00419980 f   * CIL library *:* CIL module *
 0001:0001898b       __ehhandler$?OnSysCommand@CEndoScopeMFCDlg@@IAEXIJ@Z 0041998b f   * CIL library *:* CIL module *
 0001:000189c0       __unwindfunclet$?SavePicThreadProc@CEndoScopeMFCDlg@@CAIPAX@Z$0 004199c0 f   * CIL library *:* CIL module *
 0001:000189c8       __unwindfunclet$?SavePicThreadProc@CEndoScopeMFCDlg@@CAIPAX@Z$1 004199c8 f   * CIL library *:* CIL module *
 0001:000189d0       __unwindfunclet$?SavePicThreadProc@CEndoScopeMFCDlg@@CAIPAX@Z$2 004199d0 f   * CIL library *:* CIL module *
 0001:000189db       __unwindfunclet$?SavePicThreadProc@CEndoScopeMFCDlg@@CAIPAX@Z$3 004199db f   * CIL library *:* CIL module *
 0001:000189e6       __unwindfunclet$?SavePicThreadProc@CEndoScopeMFCDlg@@CAIPAX@Z$4 004199e6 f   * CIL library *:* CIL module *
 0001:000189f1       __ehhandler$?SavePicThreadProc@CEndoScopeMFCDlg@@CAIPAX@Z 004199f1 f   * CIL library *:* CIL module *
 0001:00018a20       __unwindfunclet$?SaveToPeripherals@CEndoScopeMFCDlg@@AAEXXZ$0 00419a20 f   * CIL library *:* CIL module *
 0001:00018a2b       __unwindfunclet$?SaveToPeripherals@CEndoScopeMFCDlg@@AAEXXZ$1 00419a2b f   * CIL library *:* CIL module *
 0001:00018a34       __unwindfunclet$?SaveToPeripherals@CEndoScopeMFCDlg@@AAEXXZ$2 00419a34 f   * CIL library *:* CIL module *
 0001:00018a3d       __unwindfunclet$?SaveToPeripherals@CEndoScopeMFCDlg@@AAEXXZ$3 00419a3d f   * CIL library *:* CIL module *
 0001:00018a49       __unwindfunclet$?SaveToPeripherals@CEndoScopeMFCDlg@@AAEXXZ$4 00419a49 f   * CIL library *:* CIL module *
 0001:00018a55       __unwindfunclet$?SaveToPeripherals@CEndoScopeMFCDlg@@AAEXXZ$5 00419a55 f   * CIL library *:* CIL module *
 0001:00018a61       __unwindfunclet$?SaveToPeripherals@CEndoScopeMFCDlg@@AAEXXZ$6 00419a61 f   * CIL library *:* CIL module *
 0001:00018a6d       __ehhandler$?SaveToPeripherals@CEndoScopeMFCDlg@@AAEXXZ 00419a6d f   * CIL library *:* CIL module *
 0001:00018aa0       __unwindfunclet$?SaveVideo@CEndoScopeMFCDlg@@QAEXXZ$0 00419aa0 f   * CIL library *:* CIL module *
 0001:00018aa8       __unwindfunclet$?SaveVideo@CEndoScopeMFCDlg@@QAEXXZ$1 00419aa8 f   * CIL library *:* CIL module *
 0001:00018ab0       __ehhandler$?SaveVideo@CEndoScopeMFCDlg@@QAEXXZ 00419ab0 f   * CIL library *:* CIL module *
 0001:00018ae0       __unwindfunclet$?ScreenCAPThreadProc@CEndoScopeMFCDlg@@CAIPAX@Z$0 00419ae0 f   * CIL library *:* CIL module *
 0001:00018ae8       __ehhandler$?ScreenCAPThreadProc@CEndoScopeMFCDlg@@CAIPAX@Z 00419ae8 f   * CIL library *:* CIL module *
 0001:00018b10       __unwindfunclet$?SetPicWidowShape@CEndoScopeMFCDlg@@QAEXXZ$0 00419b10 f   * CIL library *:* CIL module *
 0001:00018b18       __unwindfunclet$?SetPicWidowShape@CEndoScopeMFCDlg@@QAEXXZ$1 00419b18 f   * CIL library *:* CIL module *
 0001:00018b20       __ehhandler$?SetPicWidowShape@CEndoScopeMFCDlg@@QAEXXZ 00419b20 f   * CIL library *:* CIL module *
 0001:00018b50       __unwindfunclet$?ShowCurrentDateTime@CEndoScopeMFCDlg@@AAEXXZ$0 00419b50 f   * CIL library *:* CIL module *
 0001:00018b59       __ehhandler$?ShowCurrentDateTime@CEndoScopeMFCDlg@@AAEXXZ 00419b59 f   * CIL library *:* CIL module *
 0001:00018b80       __unwindfunclet$?ShowEndoscopeInfo@CEndoScopeMFCDlg@@QAEXPAEH@Z$0 00419b80 f   * CIL library *:* CIL module *
 0001:00018b89       __unwindfunclet$?ShowEndoscopeInfo@CEndoScopeMFCDlg@@QAEXPAEH@Z$1 00419b89 f   * CIL library *:* CIL module *
 0001:00018b92       __unwindfunclet$?ShowEndoscopeInfo@CEndoScopeMFCDlg@@QAEXPAEH@Z$2 00419b92 f   * CIL library *:* CIL module *
 0001:00018b9b       __unwindfunclet$?ShowEndoscopeInfo@CEndoScopeMFCDlg@@QAEXPAEH@Z$3 00419b9b f   * CIL library *:* CIL module *
 0001:00018ba4       __ehhandler$?ShowEndoscopeInfo@CEndoScopeMFCDlg@@QAEXPAEH@Z 00419ba4 f   * CIL library *:* CIL module *
 0001:00018bd0       __unwindfunclet$?ShowVideoThreadFunc@CEndoScopeMFCDlg@@CAIPAX@Z$0 00419bd0 f   * CIL library *:* CIL module *
 0001:00018bdb       __unwindfunclet$?ShowVideoThreadFunc@CEndoScopeMFCDlg@@CAIPAX@Z$1 00419bdb f   * CIL library *:* CIL module *
 0001:00018be6       __unwindfunclet$?ShowVideoThreadFunc@CEndoScopeMFCDlg@@CAIPAX@Z$2 00419be6 f   * CIL library *:* CIL module *
 0001:00018bf1       __unwindfunclet$?ShowVideoThreadFunc@CEndoScopeMFCDlg@@CAIPAX@Z$3 00419bf1 f   * CIL library *:* CIL module *
 0001:00018bf9       __unwindfunclet$?ShowVideoThreadFunc@CEndoScopeMFCDlg@@CAIPAX@Z$4 00419bf9 f   * CIL library *:* CIL module *
 0001:00018c04       __unwindfunclet$?ShowVideoThreadFunc@CEndoScopeMFCDlg@@CAIPAX@Z$5 00419c04 f   * CIL library *:* CIL module *
 0001:00018c0f       __unwindfunclet$?ShowVideoThreadFunc@CEndoScopeMFCDlg@@CAIPAX@Z$6 00419c0f f   * CIL library *:* CIL module *
 0001:00018c1a       __unwindfunclet$?ShowVideoThreadFunc@CEndoScopeMFCDlg@@CAIPAX@Z$7 00419c1a f   * CIL library *:* CIL module *
 0001:00018c25       __unwindfunclet$?ShowVideoThreadFunc@CEndoScopeMFCDlg@@CAIPAX@Z$8 00419c25 f   * CIL library *:* CIL module *
 0001:00018c30       __unwindfunclet$?ShowVideoThreadFunc@CEndoScopeMFCDlg@@CAIPAX@Z$9 00419c30 f   * CIL library *:* CIL module *
 0001:00018c3b       __unwindfunclet$?ShowVideoThreadFunc@CEndoScopeMFCDlg@@CAIPAX@Z$10 00419c3b f   * CIL library *:* CIL module *
 0001:00018c46       __unwindfunclet$?ShowVideoThreadFunc@CEndoScopeMFCDlg@@CAIPAX@Z$11 00419c46 f   * CIL library *:* CIL module *
 0001:00018c51       __ehhandler$?ShowVideoThreadFunc@CEndoScopeMFCDlg@@CAIPAX@Z 00419c51 f   * CIL library *:* CIL module *
 0001:00018c80       __unwindfunclet$?WindowProc@CEndoScopeMFCDlg@@MAEJIIJ@Z$0 00419c80 f   * CIL library *:* CIL module *
 0001:00018c89       __unwindfunclet$?WindowProc@CEndoScopeMFCDlg@@MAEJIIJ@Z$1 00419c89 f   * CIL library *:* CIL module *
 0001:00018c92       __ehhandler$?WindowProc@CEndoScopeMFCDlg@@MAEJIIJ@Z 00419c92 f   * CIL library *:* CIL module *
 0001:00018cc0       __ehhandler$?_Buynode0@?$_List_alloc@$0A@U?$_List_base_types@PAEV?$allocator@PAE@std@@@std@@@std@@QAEPAU?$_List_node@PAEPAX@2@PAU32@0@Z 00419cc0 f   * CIL library *:* CIL module *
 0001:00018ce0       __unwindfunclet$?_Endwrite@?$basic_filebuf@DU?$char_traits@D@std@@@std@@IAE_NXZ$0 00419ce0 f   * CIL library *:* CIL module *
 0001:00018ce8       __ehhandler$?_Endwrite@?$basic_filebuf@DU?$char_traits@D@std@@@std@@IAE_NXZ 00419ce8 f   * CIL library *:* CIL module *
 0001:00018d10       __unwindfunclet$?open@?$basic_filebuf@DU?$char_traits@D@std@@@std@@QAEPAV12@PBDHH@Z$0 00419d10 f   * CIL library *:* CIL module *
 0001:00018d18       __ehhandler$?open@?$basic_filebuf@DU?$char_traits@D@std@@@std@@QAEPAV12@PBDHH@Z 00419d18 f   * CIL library *:* CIL module *
 0001:00018d40       __unwindfunclet$?overflow@?$basic_filebuf@DU?$char_traits@D@std@@@std@@MAEHH@Z$0 00419d40 f   * CIL library *:* CIL module *
 0001:00018d48       __ehhandler$?overflow@?$basic_filebuf@DU?$char_traits@D@std@@@std@@MAEHH@Z 00419d48 f   * CIL library *:* CIL module *
 0001:00018d70       __unwindfunclet$?uflow@?$basic_filebuf@DU?$char_traits@D@std@@@std@@MAEHXZ$0 00419d70 f   * CIL library *:* CIL module *
 0001:00018d78       __ehhandler$?uflow@?$basic_filebuf@DU?$char_traits@D@std@@@std@@MAEHXZ 00419d78 f   * CIL library *:* CIL module *
 0001:00018da0       __unwindfunclet$??0Login@@QAE@PAVCWnd@@@Z$0 00419da0 f   * CIL library *:* CIL module *
 0001:00018da8       __unwindfunclet$??0Login@@QAE@PAVCWnd@@@Z$1 00419da8 f   * CIL library *:* CIL module *
 0001:00018db7       __unwindfunclet$??0Login@@QAE@PAVCWnd@@@Z$2 00419db7 f   * CIL library *:* CIL module *
 0001:00018dc6       __unwindfunclet$??0Login@@QAE@PAVCWnd@@@Z$3 00419dc6 f   * CIL library *:* CIL module *
 0001:00018dd5       __unwindfunclet$??0Login@@QAE@PAVCWnd@@@Z$4 00419dd5 f   * CIL library *:* CIL module *
 0001:00018de4       __unwindfunclet$??0Login@@QAE@PAVCWnd@@@Z$5 00419de4 f   * CIL library *:* CIL module *
 0001:00018df3       __unwindfunclet$??0Login@@QAE@PAVCWnd@@@Z$6 00419df3 f   * CIL library *:* CIL module *
 0001:00018dfc       __unwindfunclet$??0Login@@QAE@PAVCWnd@@@Z$7 00419dfc f   * CIL library *:* CIL module *
 0001:00018e05       __ehhandler$??0Login@@QAE@PAVCWnd@@@Z 00419e05 f   * CIL library *:* CIL module *
 0001:00018e30       __unwindfunclet$??1Login@@UAE@XZ$0 00419e30 f   * CIL library *:* CIL module *
 0001:00018e38       __unwindfunclet$??1Login@@UAE@XZ$1 00419e38 f   * CIL library *:* CIL module *
 0001:00018e47       __unwindfunclet$??1Login@@UAE@XZ$2 00419e47 f   * CIL library *:* CIL module *
 0001:00018e56       __ehhandler$??1Login@@UAE@XZ 00419e56 f   * CIL library *:* CIL module *
 0001:00018e80       __unwindfunclet$?OnBnClickedBtnSetpsw@Login@@QAEXXZ$0 00419e80 f   * CIL library *:* CIL module *
 0001:00018e8b       __ehhandler$?OnBnClickedBtnSetpsw@Login@@QAEXXZ 00419e8b f   * CIL library *:* CIL module *
 0001:00018ec0       __unwindfunclet$?OnBnClickedOk@Login@@QAEXXZ$0 00419ec0 f   * CIL library *:* CIL module *
 0001:00018ec9       __unwindfunclet$?OnBnClickedOk@Login@@QAEXXZ$1 00419ec9 f   * CIL library *:* CIL module *
 0001:00018ed2       __unwindfunclet$?OnBnClickedOk@Login@@QAEXXZ$2 00419ed2 f   * CIL library *:* CIL module *
 0001:00018edb       __unwindfunclet$?OnBnClickedOk@Login@@QAEXXZ$3 00419edb f   * CIL library *:* CIL module *
 0001:00018ee4       __unwindfunclet$?OnBnClickedOk@Login@@QAEXXZ$4 00419ee4 f   * CIL library *:* CIL module *
 0001:00018eed       __ehhandler$?OnBnClickedOk@Login@@QAEXXZ 00419eed f   * CIL library *:* CIL module *
 0001:00018f20       __unwindfunclet$?OnInitDialog@Login@@UAEHXZ$0 00419f20 f   * CIL library *:* CIL module *
 0001:00018f20       __unwindfunclet$?ShotPicWindow@CEndoScopeMFCDlg@@QAEXXZ$0 00419f20 f   * CIL library *:* CIL module *
 0001:00018f29       __ehhandler$?ShotPicWindow@CEndoScopeMFCDlg@@QAEXXZ 00419f29 f   * CIL library *:* CIL module *
 0001:00018f29       __ehhandler$?OnInitDialog@Login@@UAEHXZ 00419f29 f   * CIL library *:* CIL module *
 0001:00018f50       __unwindfunclet$??0CPLC@@QAE@XZ$0 00419f50 f   * CIL library *:* CIL module *
 0001:00018f5c       __unwindfunclet$??0CPLC@@QAE@XZ$1 00419f5c f   * CIL library *:* CIL module *
 0001:00018f67       __unwindfunclet$??0CPLC@@QAE@XZ$2 00419f67 f   * CIL library *:* CIL module *
 0001:00018f72       __unwindfunclet$??0CPLC@@QAE@XZ$3 00419f72 f   * CIL library *:* CIL module *
 0001:00018f80       __ehhandler$??0CPLC@@QAE@XZ 00419f80 f   * CIL library *:* CIL module *
 0001:00018fa0       __unwindfunclet$??1CPLC@@UAE@XZ$0 00419fa0 f   * CIL library *:* CIL module *
 0001:00018fac       __unwindfunclet$??1CPLC@@UAE@XZ$1 00419fac f   * CIL library *:* CIL module *
 0001:00018fb7       __unwindfunclet$??1CPLC@@UAE@XZ$2 00419fb7 f   * CIL library *:* CIL module *
 0001:00018fc2       __ehhandler$??1CPLC@@UAE@XZ 00419fc2 f   * CIL library *:* CIL module *
 0001:00018fe0       __unwindfunclet$?VideoInitialize@CPLC@@QAE_NV?$CStringT@DV?$StrTraitMFC_DLL@DV?$ChTraitsCRT@D@ATL@@@@@ATL@@H@Z$0 00419fe0 f   * CIL library *:* CIL module *
 0001:00018fe0       __unwindfunclet$?ProcessCardInitialize@CPLC@@QAE_NV?$CStringT@DV?$StrTraitMFC_DLL@DV?$ChTraitsCRT@D@ATL@@@@@ATL@@H@Z$0 00419fe0 f   * CIL library *:* CIL module *
 0001:00018fe9       __ehhandler$?VideoInitialize@CPLC@@QAE_NV?$CStringT@DV?$StrTraitMFC_DLL@DV?$ChTraitsCRT@D@ATL@@@@@ATL@@H@Z 00419fe9 f   * CIL library *:* CIL module *
 0001:00018fe9       __ehhandler$?ProcessCardInitialize@CPLC@@QAE_NV?$CStringT@DV?$StrTraitMFC_DLL@DV?$ChTraitsCRT@D@ATL@@@@@ATL@@H@Z 00419fe9 f   * CIL library *:* CIL module *
 0001:00019010       __unwindfunclet$?Initialize@CVideoComIO@@QAE_NV?$CStringT@DV?$StrTraitMFC_DLL@DV?$ChTraitsCRT@D@ATL@@@@@ATL@@H@Z$0 0041a010 f   * CIL library *:* CIL module *
 0001:00019010       __unwindfunclet$?Initialize@CProcessCard@@QAE_NV?$CStringT@DV?$StrTraitMFC_DLL@DV?$ChTraitsCRT@D@ATL@@@@@ATL@@H@Z$0 0041a010 f   * CIL library *:* CIL module *
 0001:00019019       __ehhandler$?Initialize@CVideoComIO@@QAE_NV?$CStringT@DV?$StrTraitMFC_DLL@DV?$ChTraitsCRT@D@ATL@@@@@ATL@@H@Z 0041a019 f   * CIL library *:* CIL module *
 0001:00019019       __ehhandler$?Initialize@CProcessCard@@QAE_NV?$CStringT@DV?$StrTraitMFC_DLL@DV?$ChTraitsCRT@D@ATL@@@@@ATL@@H@Z 0041a019 f   * CIL library *:* CIL module *
 0001:00019040       __ehhandler$?SendData@CProcessCard@@QAEHPAEH@Z 0041a040 f   * CIL library *:* CIL module *
 0001:00019070       __unwindfunclet$?OnRecv@CVideoComIO@@QAEIPAX@Z$0 0041a070 f   * CIL library *:* CIL module *
 0001:00019079       __unwindfunclet$?OnRecv@CVideoComIO@@QAEIPAX@Z$1 0041a079 f   * CIL library *:* CIL module *
 0001:00019082       __ehhandler$?OnRecv@CVideoComIO@@QAEIPAX@Z 0041a082 f   * CIL library *:* CIL module *
 0001:000190b0       __ehhandler$?SendData@CVideoComIO@@QAEHPAEH@Z 0041a0b0 f   * CIL library *:* CIL module *
 0001:000190e0       ??__E?_Iostream_object@?$_Error_objects@H@std@@2V_Iostream_error_category@2@A@@YAXXZ 0041a0e0 f   * CIL library *:* CIL module *
 0001:00019100       ??__Eg_decDriver@@YAXXZ    0041a100 f   * CIL library *:* CIL module *
 0001:00019130       ??__Eg_strSaveDir@@YAXXZ   0041a130 f   * CIL library *:* CIL module *
 0001:00019160       ??__Eg_strTmpDir@@YAXXZ    0041a160 f   * CIL library *:* CIL module *
 0001:00019190       ??__Eg_ConfigPath@@YAXXZ   0041a190 f   * CIL library *:* CIL module *
 0001:000191c0       ??__Eg_strIP@@YAXXZ        0041a1c0 f   * CIL library *:* CIL module *
 0001:000191f0       ??__Eg_strName@@YAXXZ      0041a1f0 f   * CIL library *:* CIL module *
 0001:00019220       ??__Eg_strID@@YAXXZ        0041a220 f   * CIL library *:* CIL module *
 0001:00019250       ??__Eg_strPatientInfo@@YAXXZ 0041a250 f   * CIL library *:* CIL module *
 0001:00019280       ??__EstrAvg@@YAXXZ         0041a280 f   * CIL library *:* CIL module *
 0001:000192b0       ??__EstrPeek@@YAXXZ        0041a2b0 f   * CIL library *:* CIL module *
 0001:000192e0       ??__Eg_Video_list@@YAXXZ   0041a2e0 f   * CIL library *:* CIL module *
 0001:00019310       ??__Eg_Map_Sharpness@@YAXXZ 0041a310 f   * CIL library *:* CIL module *
 0001:00019340       ??__Eg_Operate_list@@YAXXZ 0041a340 f   * CIL library *:* CIL module *
 0001:00019370       ??__EtheApp@@YAXXZ         0041a370 f   * CIL library *:* CIL module *
 0001:000193a0       ??__Eg_videoevent@@YAXXZ   0041a3a0 f   * CIL library *:* CIL module *
 0001:000193e0       ??__Eg_resizeevent@@YAXXZ  0041a3e0 f   * CIL library *:* CIL module *
 0001:00019420       ??__Eg_picevent@@YAXXZ     0041a420 f   * CIL library *:* CIL module *
 0001:00019460       ??__Eg_showevent@@YAXXZ    0041a460 f   * CIL library *:* CIL module *
 0001:000194a0       ??__Eg_capevent@@YAXXZ     0041a4a0 f   * CIL library *:* CIL module *
 0001:000194e0       ??__Eb@@YAXXZ              0041a4e0 f   * CIL library *:* CIL module *
 0001:00019500       ??__Epiecewise_construct@std@@YAXXZ 0041a500 f   * CIL library *:* CIL module *
 0001:00019510       ??__Eallocator_arg@std@@YAXXZ 0041a510 f   * CIL library *:* CIL module *
 0001:00019520       ??__E?_Generic_object@?$_Error_objects@H@std@@2V_Generic_error_category@2@A@@YAXXZ 0041a520 f   * CIL library *:* CIL module *
 0001:00019540       ??__E?_System_object@?$_Error_objects@H@std@@2V_System_error_category@2@A@@YAXXZ 0041a540 f   * CIL library *:* CIL module *
 0001:00019560       ??__E?id@?$num_put@DV?$back_insert_iterator@V?$basic_string@DU?$char_traits@D@std@@V?$allocator@D@2@@std@@@std@@@std@@2V0locale@2@A@@YAXXZ 0041a560 f   * CIL library *:* CIL module *
 0001:00019580       ??__E?id@?$num_put@_WV?$back_insert_iterator@V?$basic_string@_WU?$char_traits@_W@std@@V?$allocator@_W@2@@std@@@std@@@std@@2V0locale@2@A@@YAXXZ 0041a580 f   * CIL library *:* CIL module *
 0001:00019592       ??__E_Fac_tidy_reg@std@@YAXXZ 0041a592 f   msvcprt:locale0_implib.obj
 0001:0001959e       ??__E_afxInitAppState@@YAXXZ 0041a59e f   mfcs110:appmodul.obj
 0001:000195b0       ??__F?_Iostream_object@?$_Error_objects@H@std@@2V_Iostream_error_category@2@A@@YAXXZ 0041a5b0 f   * CIL library *:* CIL module *
 0001:000195c0       ??__Fg_decDriver@@YAXXZ    0041a5c0 f   * CIL library *:* CIL module *
 0001:000195d0       ??__Fg_strSaveDir@@YAXXZ   0041a5d0 f   * CIL library *:* CIL module *
 0001:000195e0       ??__Fg_strTmpDir@@YAXXZ    0041a5e0 f   * CIL library *:* CIL module *
 0001:000195f0       ??__Fg_ConfigPath@@YAXXZ   0041a5f0 f   * CIL library *:* CIL module *
 0001:00019600       ??__Fg_strIP@@YAXXZ        0041a600 f   * CIL library *:* CIL module *
 0001:00019610       ??__Fg_strName@@YAXXZ      0041a610 f   * CIL library *:* CIL module *
 0001:00019620       ??__Fg_strID@@YAXXZ        0041a620 f   * CIL library *:* CIL module *
 0001:00019630       ??__Fg_strPatientInfo@@YAXXZ 0041a630 f   * CIL library *:* CIL module *
 0001:00019640       ??__FstrAvg@@YAXXZ         0041a640 f   * CIL library *:* CIL module *
 0001:00019650       ??__FstrPeek@@YAXXZ        0041a650 f   * CIL library *:* CIL module *
 0001:00019660       ??__Fg_Video_list@@YAXXZ   0041a660 f   * CIL library *:* CIL module *
 0001:00019670       ??__Fg_Map_Sharpness@@YAXXZ 0041a670 f   * CIL library *:* CIL module *
 0001:00019680       ??__Fg_Operate_list@@YAXXZ 0041a680 f   * CIL library *:* CIL module *
 0001:00019690       ??__FtheApp@@YAXXZ         0041a690 f   * CIL library *:* CIL module *
 0001:000196a0       ??__Fg_videoevent@@YAXXZ   0041a6a0 f   * CIL library *:* CIL module *
 0001:000196b0       ??__Fg_resizeevent@@YAXXZ  0041a6b0 f   * CIL library *:* CIL module *
 0001:000196c0       ??__Fg_picevent@@YAXXZ     0041a6c0 f   * CIL library *:* CIL module *
 0001:000196d0       ??__Fg_showevent@@YAXXZ    0041a6d0 f   * CIL library *:* CIL module *
 0001:000196e0       ??__Fg_capevent@@YAXXZ     0041a6e0 f   * CIL library *:* CIL module *
 0001:000196f0       ??__F?_System_object@?$_Error_objects@H@std@@2V_System_error_category@2@A@@YAXXZ 0041a6f0 f   * CIL library *:* CIL module *
 0001:00019700       ??__F?_Generic_object@?$_Error_objects@H@std@@2V_Generic_error_category@2@A@@YAXXZ 0041a700 f   * CIL library *:* CIL module *
 0001:0001970f       ??__F_Fac_tidy_reg@std@@YAXXZ 0041a70f f   msvcprt:locale0_implib.obj
 0002:000007a8       _pcppinit                  0041b7a8     msvcrt:crtexew.obj
 0002:000007ac       __Fac_tidy_reg$initializer$ 0041b7ac     msvcprt:locale0_implib.obj
 0002:000007b0       __afxInitAppState$initializer$ 0041b7b0     mfcs110:appmodul.obj
 0002:000007b4       ?_Iostream_object$initializer$@?$_Error_objects@H@std@@2P6AXXZA 0041b7b4     * CIL library *:* CIL module *
 0002:000007b8       _g_decDriver$initializer$  0041b7b8     * CIL library *:* CIL module *
 0002:000007bc       _g_strSaveDir$initializer$ 0041b7bc     * CIL library *:* CIL module *
 0002:000007c0       _g_strTmpDir$initializer$  0041b7c0     * CIL library *:* CIL module *
 0002:000007c4       _g_ConfigPath$initializer$ 0041b7c4     * CIL library *:* CIL module *
 0002:000007c8       _g_strIP$initializer$      0041b7c8     * CIL library *:* CIL module *
 0002:000007cc       _g_strName$initializer$    0041b7cc     * CIL library *:* CIL module *
 0002:000007d0       _g_strID$initializer$      0041b7d0     * CIL library *:* CIL module *
 0002:000007d4       _g_strPatientInfo$initializer$ 0041b7d4     * CIL library *:* CIL module *
 0002:000007d8       _strAvg$initializer$       0041b7d8     * CIL library *:* CIL module *
 0002:000007dc       _strPeek$initializer$      0041b7dc     * CIL library *:* CIL module *
 0002:000007e0       _g_Video_list$initializer$ 0041b7e0     * CIL library *:* CIL module *
 0002:000007e4       _g_Map_Sharpness$initializer$ 0041b7e4     * CIL library *:* CIL module *
 0002:000007e8       _g_Operate_list$initializer$ 0041b7e8     * CIL library *:* CIL module *
 0002:000007ec       _theApp$initializer$       0041b7ec     * CIL library *:* CIL module *
 0002:000007f0       _g_videoevent$initializer$ 0041b7f0     * CIL library *:* CIL module *
 0002:000007f4       _g_resizeevent$initializer$ 0041b7f4     * CIL library *:* CIL module *
 0002:000007f8       _g_picevent$initializer$   0041b7f8     * CIL library *:* CIL module *
 0002:000007fc       _g_showevent$initializer$  0041b7fc     * CIL library *:* CIL module *
 0002:00000800       _g_capevent$initializer$   0041b800     * CIL library *:* CIL module *
 0002:00000804       _b$initializer$            0041b804     * CIL library *:* CIL module *
 0002:00000808       _piecewise_construct$initializer$ 0041b808     * CIL library *:* CIL module *
 0002:0000080c       _allocator_arg$initializer$ 0041b80c     * CIL library *:* CIL module *
 0002:00000810       ?_Generic_object$initializer$@?$_Error_objects@H@std@@2P6AXXZA 0041b810     * CIL library *:* CIL module *
 0002:00000814       ?_System_object$initializer$@?$_Error_objects@H@std@@2P6AXXZA 0041b814     * CIL library *:* CIL module *
 0002:00000818       ?id$initializer$@?$num_put@DV?$back_insert_iterator@V?$basic_string@DU?$char_traits@D@std@@V?$allocator@D@2@@std@@@std@@@std@@2P6AXXZA 0041b818     * CIL library *:* CIL module *
 0002:0000081c       ?id$initializer$@?$num_put@_WV?$back_insert_iterator@V?$basic_string@_WU?$char_traits@_W@std@@V?$allocator@_W@2@@std@@@std@@@std@@2P6AXXZA 0041b81c     * CIL library *:* CIL module *
 0002:00000828       _pcinit                    0041b828     msvcrt:crtexew.obj
 0002:0000082c       _pinit                     0041b82c     msvcrt:atonexit.obj
 0002:00000830       _pinit                     0041b830     msvcrt:crtexew.obj
 0002:00000880       _GS_ExceptionPointers      0041b880     msvcrt:gs_report.obj
 0002:00000948       $SG4294967287              0041b948     * CIL library *:* CIL module *
 0002:00000949       $SG4294964372              0041b949     * CIL library *:* CIL module *
 0002:0000094a       $SG4294964369              0041b94a     * CIL library *:* CIL module *
 0002:0000094b       $SG4294964364              0041b94b     * CIL library *:* CIL module *
 0002:0000094c       $SG4294967286              0041b94c     * CIL library *:* CIL module *
 0002:0000094e       $SG4294963869              0041b94e     * CIL library *:* CIL module *
 0002:0000094f       $SG4294963866              0041b94f     * CIL library *:* CIL module *
 0002:00000950       $SG4294967265              0041b950     * CIL library *:* CIL module *
 0002:00000954       $SG4294964374              0041b954     * CIL library *:* CIL module *
 0002:0000095c       $SG4294964373              0041b95c     * CIL library *:* CIL module *
 0002:00000968       $SG4294964371              0041b968     * CIL library *:* CIL module *
 0002:00000971       $SG4294963864              0041b971     * CIL library *:* CIL module *
 0002:00000972       $SG4294963863              0041b972     * CIL library *:* CIL module *
 0002:00000973       $SG4294963862              0041b973     * CIL library *:* CIL module *
 0002:00000974       $SG4294964370              0041b974     * CIL library *:* CIL module *
 0002:0000097a       $SG4294963861              0041b97a     * CIL library *:* CIL module *
 0002:0000097b       $SG4294963860              0041b97b     * CIL library *:* CIL module *
 0002:0000097c       $SG4294964368              0041b97c     * CIL library *:* CIL module *
 0002:00000985       $SG4294963859              0041b985     * CIL library *:* CIL module *
 0002:00000986       $SG4294963858              0041b986     * CIL library *:* CIL module *
 0002:00000987       $SG4294963014              0041b987     * CIL library *:* CIL module *
 0002:00000988       $SG4294964367              0041b988     * CIL library *:* CIL module *
 0002:00000999       $SG4294960488              0041b999     * CIL library *:* CIL module *
 0002:0000099a       $SG4294957321              0041b99a     * CIL library *:* CIL module *
 0002:0000099b       $SG4294957274              0041b99b     * CIL library *:* CIL module *
 0002:0000099c       $SG4294964366              0041b99c     * CIL library *:* CIL module *
 0002:000009a5       $SG4294957245              0041b9a5     * CIL library *:* CIL module *
 0002:000009a6       $SG4294957202              0041b9a6     * CIL library *:* CIL module *
 0002:000009a7       $SG4294953287              0041b9a7     * CIL library *:* CIL module *
 0002:000009a8       $SG4294964365              0041b9a8     * CIL library *:* CIL module *
 0002:000009b9       $SG4294953284              0041b9b9     * CIL library *:* CIL module *
 0002:000009ba       $SG4294953278              0041b9ba     * CIL library *:* CIL module *
 0002:000009bb       $SG4294953275              0041b9bb     * CIL library *:* CIL module *
 0002:000009bc       $SG4294964363              0041b9bc     * CIL library *:* CIL module *
 0002:000009c5       $SG4294928848              0041b9c5     * CIL library *:* CIL module *
 0002:000009c8       $SG4294964362              0041b9c8     * CIL library *:* CIL module *
 0002:000009dc       $SG4294964361              0041b9dc     * CIL library *:* CIL module *
 0002:000009e8       $SG4294964360              0041b9e8     * CIL library *:* CIL module *
 0002:00000a04       $SG4294964359              0041ba04     * CIL library *:* CIL module *
 0002:00000a10       $SG4294964358              0041ba10     * CIL library *:* CIL module *
 0002:00000a38       $SG4294964357              0041ba38     * CIL library *:* CIL module *
 0002:00000a44       $SG4294964356              0041ba44     * CIL library *:* CIL module *
 0002:00000a4c       $SG4294964355              0041ba4c     * CIL library *:* CIL module *
 0002:00000a58       $SG4294964354              0041ba58     * CIL library *:* CIL module *
 0002:00000a70       $SG4294963868              0041ba70     * CIL library *:* CIL module *
 0002:00000a78       $SG4294963867              0041ba78     * CIL library *:* CIL module *
 0002:00000a84       $SG4294963865              0041ba84     * CIL library *:* CIL module *
 0002:00000a94       $SG4294963857              0041ba94     * CIL library *:* CIL module *
 0002:00000aa0       $SG4294963856              0041baa0     * CIL library *:* CIL module *
 0002:00000ab0       $SG4294963855              0041bab0     * CIL library *:* CIL module *
 0002:00000ab8       $SG4294963854              0041bab8     * CIL library *:* CIL module *
 0002:00000ac4       $SG4294963853              0041bac4     * CIL library *:* CIL module *
 0002:00000ac8       $SG4294963852              0041bac8     * CIL library *:* CIL module *
 0002:00000acc       $SG4294963851              0041bacc     * CIL library *:* CIL module *
 0002:00000ad8       $SG4294963850              0041bad8     * CIL library *:* CIL module *
 0002:00000ae4       $SG4294963849              0041bae4     * CIL library *:* CIL module *
 0002:00000af0       $SG4294963848              0041baf0     * CIL library *:* CIL module *
 0002:00000afc       $SG4294963847              0041bafc     * CIL library *:* CIL module *
 0002:00000b08       $SG4294963846              0041bb08     * CIL library *:* CIL module *
 0002:00000b14       $SG4294963845              0041bb14     * CIL library *:* CIL module *
 0002:00000b20       $SG4294963844              0041bb20     * CIL library *:* CIL module *
 0002:00000b2c       $SG4294963843              0041bb2c     * CIL library *:* CIL module *
 0002:00000b38       $SG4294963842              0041bb38     * CIL library *:* CIL module *
 0002:00000b44       $SG4294963841              0041bb44     * CIL library *:* CIL module *
 0002:00000b4c       $SG4294963840              0041bb4c     * CIL library *:* CIL module *
 0002:00000b58       $SG4294963839              0041bb58     * CIL library *:* CIL module *
 0002:00000b64       $SG4294963838              0041bb64     * CIL library *:* CIL module *
 0002:00000b70       $SG4294963837              0041bb70     * CIL library *:* CIL module *
 0002:00000b80       $SG4294963836              0041bb80     * CIL library *:* CIL module *
 0002:00000b8c       $SG4294963835              0041bb8c     * CIL library *:* CIL module *
 0002:00000b9c       $SG4294963834              0041bb9c     * CIL library *:* CIL module *
 0002:00000ba8       $SG4294963833              0041bba8     * CIL library *:* CIL module *
 0002:00000bb0       $SG4294963832              0041bbb0     * CIL library *:* CIL module *
 0002:00000bbc       $SG4294963831              0041bbbc     * CIL library *:* CIL module *
 0002:00000bc4       $SG4294963830              0041bbc4     * CIL library *:* CIL module *
 0002:00000bd0       $SG4294963829              0041bbd0     * CIL library *:* CIL module *
 0002:00000bd8       $SG4294963828              0041bbd8     * CIL library *:* CIL module *
 0002:00000be4       $SG4294963827              0041bbe4     * CIL library *:* CIL module *
 0002:00000bf4       $SG4294963826              0041bbf4     * CIL library *:* CIL module *
 0002:00000c00       $SG4294963825              0041bc00     * CIL library *:* CIL module *
 0002:00000c08       $SG4294963824              0041bc08     * CIL library *:* CIL module *
 0002:00000c14       $SG4294963823              0041bc14     * CIL library *:* CIL module *
 0002:00000c1c       $SG4294963822              0041bc1c     * CIL library *:* CIL module *
 0002:00000c28       $SG4294963821              0041bc28     * CIL library *:* CIL module *
 0002:00000c30       $SG4294963820              0041bc30     * CIL library *:* CIL module *
 0002:00000c3c       $SG4294963819              0041bc3c     * CIL library *:* CIL module *
 0002:00000c44       $SG4294963818              0041bc44     * CIL library *:* CIL module *
 0002:00000c50       $SG4294963817              0041bc50     * CIL library *:* CIL module *
 0002:00000c58       $SG4294963816              0041bc58     * CIL library *:* CIL module *
 0002:00000c5c       $SG4294963815              0041bc5c     * CIL library *:* CIL module *
 0002:00000c64       $SG4294963814              0041bc64     * CIL library *:* CIL module *
 0002:00000c68       $SG4294963813              0041bc68     * CIL library *:* CIL module *
 0002:00000c70       $SG4294963812              0041bc70     * CIL library *:* CIL module *
 0002:00000c74       $SG4294963811              0041bc74     * CIL library *:* CIL module *
 0002:00000c80       $SG4294963810              0041bc80     * CIL library *:* CIL module *
 0002:00000c88       $SG4294963809              0041bc88     * CIL library *:* CIL module *
 0002:00000c98       $SG4294963808              0041bc98     * CIL library *:* CIL module *
 0002:00000ca4       $SG4294963807              0041bca4     * CIL library *:* CIL module *
 0002:00000cac       $SG4294963806              0041bcac     * CIL library *:* CIL module *
 0002:00000cb4       $SG4294963805              0041bcb4     * CIL library *:* CIL module *
 0002:00000cc0       $SG4294963804              0041bcc0     * CIL library *:* CIL module *
 0002:00000cc8       $SG4294963803              0041bcc8     * CIL library *:* CIL module *
 0002:00000cd4       $SG4294963802              0041bcd4     * CIL library *:* CIL module *
 0002:00000cdc       $SG4294963801              0041bcdc     * CIL library *:* CIL module *
 0002:00000ce8       $SG4294963800              0041bce8     * CIL library *:* CIL module *
 0002:00000cf4       $SG4294963799              0041bcf4     * CIL library *:* CIL module *
 0002:00000cfc       $SG4294963798              0041bcfc     * CIL library *:* CIL module *
 0002:00000d08       $SG4294963797              0041bd08     * CIL library *:* CIL module *
 0002:00000d14       $SG4294963796              0041bd14     * CIL library *:* CIL module *
 0002:00000d1c       $SG4294963795              0041bd1c     * CIL library *:* CIL module *
 0002:00000d28       $SG4294963794              0041bd28     * CIL library *:* CIL module *
 0002:00000d34       $SG4294963793              0041bd34     * CIL library *:* CIL module *
 0002:00000d40       $SG4294963792              0041bd40     * CIL library *:* CIL module *
 0002:00000d4c       $SG4294963791              0041bd4c     * CIL library *:* CIL module *
 0002:00000d58       $SG4294963790              0041bd58     * CIL library *:* CIL module *
 0002:00000d5c       $SG4294963789              0041bd5c     * CIL library *:* CIL module *
 0002:00000d68       $SG4294963788              0041bd68     * CIL library *:* CIL module *
 0002:00000da0       $SG4294963013              0041bda0     * CIL library *:* CIL module *
 0002:00000da4       $SG4294962992              0041bda4     * CIL library *:* CIL module *
 0002:00000da8       $SG4294962991              0041bda8     * CIL library *:* CIL module *
 0002:00000db4       $SG4294962990              0041bdb4     * CIL library *:* CIL module *
 0002:00000de0       $SG4294962989              0041bde0     * CIL library *:* CIL module *
 0002:00000e10       $SG4294962988              0041be10     * CIL library *:* CIL module *
 0002:00000e1c       $SG4294962985              0041be1c     * CIL library *:* CIL module *
 0002:00000e34       $SG4294962983              0041be34     * CIL library *:* CIL module *
 0002:00000e58       $SG4294962987              0041be58     * CIL library *:* CIL module *
 0002:00000f34       $SG4294962984              0041bf34     * CIL library *:* CIL module *
 0002:00000f44       $SG4294962980              0041bf44     * CIL library *:* CIL module *
 0002:00000f68       $SG4294962986              0041bf68     * CIL library *:* CIL module *
 0002:00000fac       $SG4294962982              0041bfac     * CIL library *:* CIL module *
 0002:00000fc4       $SG4294962981              0041bfc4     * CIL library *:* CIL module *
 0002:00000fec       $SG4294962979              0041bfec     * CIL library *:* CIL module *
 0002:00000ffc       $SG4294962978              0041bffc     * CIL library *:* CIL module *
 0002:00001028       $SG4294962977              0041c028     * CIL library *:* CIL module *
 0002:00001054       $SG4294962976              0041c054     * CIL library *:* CIL module *
 0002:00001070       $SG4294962975              0041c070     * CIL library *:* CIL module *
 0002:00001120       $SG4294962974              0041c120     * CIL library *:* CIL module *
 0002:00001154       $SG4294962973              0041c154     * CIL library *:* CIL module *
 0002:00001170       $SG4294960487              0041c170     * CIL library *:* CIL module *
 0002:00001174       $SG4294960466              0041c174     * CIL library *:* CIL module *
 0002:00001178       $SG4294960465              0041c178     * CIL library *:* CIL module *
 0002:00001190       $SG4294960464              0041c190     * CIL library *:* CIL module *
 0002:000011b0       $SG4294957320              0041c1b0     * CIL library *:* CIL module *
 0002:000011b4       $SG4294957299              0041c1b4     * CIL library *:* CIL module *
 0002:000011b8       $SG4294957298              0041c1b8     * CIL library *:* CIL module *
 0002:000011d8       $SG4294957297              0041c1d8     * CIL library *:* CIL module *
 0002:000011dc       $SG4294957296              0041c1dc     * CIL library *:* CIL module *
 0002:000011f0       $SG4294957295              0041c1f0     * CIL library *:* CIL module *
 0002:000011f4       $SG4294957294              0041c1f4     * CIL library *:* CIL module *
 0002:000011f8       $SG4294957293              0041c1f8     * CIL library *:* CIL module *
 0002:000011fc       $SG4294957292              0041c1fc     * CIL library *:* CIL module *
 0002:00001204       $SG4294957291              0041c204     * CIL library *:* CIL module *
 0002:0000120c       $SG4294957290              0041c20c     * CIL library *:* CIL module *
 0002:00001214       $SG4294957289              0041c214     * CIL library *:* CIL module *
 0002:0000121c       $SG4294957288              0041c21c     * CIL library *:* CIL module *
 0002:00001224       $SG4294957287              0041c224     * CIL library *:* CIL module *
 0002:0000122c       $SG4294957286              0041c22c     * CIL library *:* CIL module *
 0002:0000123c       $SG4294957285              0041c23c     * CIL library *:* CIL module *
 0002:00001244       $SG4294957284              0041c244     * CIL library *:* CIL module *
 0002:00001260       $SG4294957283              0041c260     * CIL library *:* CIL module *
 0002:00001268       $SG4294957282              0041c268     * CIL library *:* CIL module *
 0002:00001270       $SG4294957281              0041c270     * CIL library *:* CIL module *
 0002:00001274       $SG4294957280              0041c274     * CIL library *:* CIL module *
 0002:0000127c       $SG4294957279              0041c27c     * CIL library *:* CIL module *
 0002:00001280       $SG4294957278              0041c280     * CIL library *:* CIL module *
 0002:00001284       $SG4294957277              0041c284     * CIL library *:* CIL module *
 0002:0000128c       $SG4294957276              0041c28c     * CIL library *:* CIL module *
 0002:00001290       $SG4294957275              0041c290     * CIL library *:* CIL module *
 0002:00001294       $SG4294957273              0041c294     * CIL library *:* CIL module *
 0002:000012a0       $SG4294957272              0041c2a0     * CIL library *:* CIL module *
 0002:000012ac       $SG4294957271              0041c2ac     * CIL library *:* CIL module *
 0002:000012c0       $SG4294957270              0041c2c0     * CIL library *:* CIL module *
 0002:000012cc       $SG4294957269              0041c2cc     * CIL library *:* CIL module *
 0002:000012d4       $SG4294957268              0041c2d4     * CIL library *:* CIL module *
 0002:000012e0       $SG4294957267              0041c2e0     * CIL library *:* CIL module *
 0002:000012e8       $SG4294957266              0041c2e8     * CIL library *:* CIL module *
 0002:000012f0       $SG4294957265              0041c2f0     * CIL library *:* CIL module *
 0002:000012f8       $SG4294957264              0041c2f8     * CIL library *:* CIL module *
 0002:00001300       $SG4294957263              0041c300     * CIL library *:* CIL module *
 0002:00001308       $SG4294957262              0041c308     * CIL library *:* CIL module *
 0002:00001310       $SG4294957261              0041c310     * CIL library *:* CIL module *
 0002:00001318       $SG4294957260              0041c318     * CIL library *:* CIL module *
 0002:00001320       $SG4294957259              0041c320     * CIL library *:* CIL module *
 0002:00001328       $SG4294957258              0041c328     * CIL library *:* CIL module *
 0002:00001330       $SG4294957257              0041c330     * CIL library *:* CIL module *
 0002:0000133c       $SG4294957256              0041c33c     * CIL library *:* CIL module *
 0002:00001348       $SG4294957255              0041c348     * CIL library *:* CIL module *
 0002:00001368       $SG4294957254              0041c368     * CIL library *:* CIL module *
 0002:00001378       $SG4294957253              0041c378     * CIL library *:* CIL module *
 0002:00001380       $SG4294957252              0041c380     * CIL library *:* CIL module *
 0002:00001388       $SG4294957251              0041c388     * CIL library *:* CIL module *
 0002:00001394       $SG4294957250              0041c394     * CIL library *:* CIL module *
 0002:000013a8       $SG4294957249              0041c3a8     * CIL library *:* CIL module *
 0002:000013b4       $SG4294957248              0041c3b4     * CIL library *:* CIL module *
 0002:000013b8       $SG4294957247              0041c3b8     * CIL library *:* CIL module *
 0002:000013bc       $SG4294957246              0041c3bc     * CIL library *:* CIL module *
 0002:000013c4       $SG4294957244              0041c3c4     * CIL library *:* CIL module *
 0002:000013d0       $SG4294957243              0041c3d0     * CIL library *:* CIL module *
 0002:000013dc       $SG4294957242              0041c3dc     * CIL library *:* CIL module *
 0002:000013f0       $SG4294957241              0041c3f0     * CIL library *:* CIL module *
 0002:00001404       $SG4294957240              0041c404     * CIL library *:* CIL module *
 0002:00001410       $SG4294957239              0041c410     * CIL library *:* CIL module *
 0002:00001418       $SG4294957238              0041c418     * CIL library *:* CIL module *
 0002:00001424       $SG4294957237              0041c424     * CIL library *:* CIL module *
 0002:0000142c       $SG4294957236              0041c42c     * CIL library *:* CIL module *
 0002:00001438       $SG4294957235              0041c438     * CIL library *:* CIL module *
 0002:00001440       $SG4294957234              0041c440     * CIL library *:* CIL module *
 0002:00001448       $SG4294957233              0041c448     * CIL library *:* CIL module *
 0002:00001454       $SG4294957232              0041c454     * CIL library *:* CIL module *
 0002:0000145c       $SG4294957231              0041c45c     * CIL library *:* CIL module *
 0002:00001468       $SG4294957230              0041c468     * CIL library *:* CIL module *
 0002:00001470       $SG4294957229              0041c470     * CIL library *:* CIL module *
 0002:00001478       $SG4294957228              0041c478     * CIL library *:* CIL module *
 0002:00001484       $SG4294957227              0041c484     * CIL library *:* CIL module *
 0002:0000148c       $SG4294957226              0041c48c     * CIL library *:* CIL module *
 0002:00001498       $SG4294957225              0041c498     * CIL library *:* CIL module *
 0002:000014a4       $SG4294957224              0041c4a4     * CIL library *:* CIL module *
 0002:000014b0       $SG4294957223              0041c4b0     * CIL library *:* CIL module *
 0002:000014bc       $SG4294957222              0041c4bc     * CIL library *:* CIL module *
 0002:000014c4       $SG4294957221              0041c4c4     * CIL library *:* CIL module *
 0002:000014d0       $SG4294957220              0041c4d0     * CIL library *:* CIL module *
 0002:000014d8       $SG4294957219              0041c4d8     * CIL library *:* CIL module *
 0002:000014ec       $SG4294957218              0041c4ec     * CIL library *:* CIL module *
 0002:000014f8       $SG4294957217              0041c4f8     * CIL library *:* CIL module *
 0002:00001504       $SG4294957216              0041c504     * CIL library *:* CIL module *
 0002:00001510       $SG4294957215              0041c510     * CIL library *:* CIL module *
 0002:0000151c       $SG4294957214              0041c51c     * CIL library *:* CIL module *
 0002:00001528       $SG4294957213              0041c528     * CIL library *:* CIL module *
 0002:00001534       $SG4294957212              0041c534     * CIL library *:* CIL module *
 0002:00001540       $SG4294957211              0041c540     * CIL library *:* CIL module *
 0002:00001548       $SG4294957210              0041c548     * CIL library *:* CIL module *
 0002:00001560       $SG4294957209              0041c560     * CIL library *:* CIL module *
 0002:0000156c       $SG4294957208              0041c56c     * CIL library *:* CIL module *
 0002:00001578       $SG4294957207              0041c578     * CIL library *:* CIL module *
 0002:0000157c       $SG4294957206              0041c57c     * CIL library *:* CIL module *
 0002:00001588       $SG4294957205              0041c588     * CIL library *:* CIL module *
 0002:0000158c       $SG4294957204              0041c58c     * CIL library *:* CIL module *
 0002:00001598       $SG4294957203              0041c598     * CIL library *:* CIL module *
 0002:000015a4       $SG4294957201              0041c5a4     * CIL library *:* CIL module *
 0002:000015b8       $SG4294957200              0041c5b8     * CIL library *:* CIL module *
 0002:000015c4       $SG4294954037              0041c5c4     * CIL library *:* CIL module *
 0002:000015d8       $SG4294953393              0041c5d8     * CIL library *:* CIL module *
 0002:000015e4       $SG4294953373              0041c5e4     * CIL library *:* CIL module *
 0002:000015ec       $SG4294953289              0041c5ec     * CIL library *:* CIL module *
 0002:000015f4       $SG4294953288              0041c5f4     * CIL library *:* CIL module *
 0002:00001600       $SG4294953286              0041c600     * CIL library *:* CIL module *
 0002:0000160c       $SG4294953285              0041c60c     * CIL library *:* CIL module *
 0002:00001614       $SG4294953283              0041c614     * CIL library *:* CIL module *
 0002:00001620       $SG4294953282              0041c620     * CIL library *:* CIL module *
 0002:00001628       $SG4294953281              0041c628     * CIL library *:* CIL module *
 0002:00001634       $SG4294953280              0041c634     * CIL library *:* CIL module *
 0002:00001644       $SG4294953279              0041c644     * CIL library *:* CIL module *
 0002:00001650       $SG4294953277              0041c650     * CIL library *:* CIL module *
 0002:0000165c       $SG4294953276              0041c65c     * CIL library *:* CIL module *
 0002:00001664       $SG4294953274              0041c664     * CIL library *:* CIL module *
 0002:00001670       $SG4294953273              0041c670     * CIL library *:* CIL module *
 0002:00001678       $SG4294953272              0041c678     * CIL library *:* CIL module *
 0002:00001684       $SG4294953271              0041c684     * CIL library *:* CIL module *
 0002:00001698       $SG4294953270              0041c698     * CIL library *:* CIL module *
 0002:0000169c       $SG4294953031              0041c69c     * CIL library *:* CIL module *
 0002:000016b8       $SG4294953030              0041c6b8     * CIL library *:* CIL module *
 0002:000016d4       $SG4294953029              0041c6d4     * CIL library *:* CIL module *
 0002:000016f0       $SG4294953028              0041c6f0     * CIL library *:* CIL module *
 0002:00001704       $SG4294953027              0041c704     * CIL library *:* CIL module *
 0002:00001720       $SG4294953026              0041c720     * CIL library *:* CIL module *
 0002:00001728       $SG4294953025              0041c728     * CIL library *:* CIL module *
 0002:00001734       $SG4294953024              0041c734     * CIL library *:* CIL module *
 0002:00001744       $SG4294953023              0041c744     * CIL library *:* CIL module *
 0002:0000174c       $SG4294953022              0041c74c     * CIL library *:* CIL module *
 0002:00001768       $SG4294952420              0041c768     * CIL library *:* CIL module *
 0002:00001774       $SG4294952354              0041c774     * CIL library *:* CIL module *
 0002:00001788       $SG4294952353              0041c788     * CIL library *:* CIL module *
 0002:000017a0       $SG4294952334              0041c7a0     * CIL library *:* CIL module *
 0002:000017a4       $SG4294952333              0041c7a4     * CIL library *:* CIL module *
 0002:000017a8       $SG4294952332              0041c7a8     * CIL library *:* CIL module *
 0002:000017ac       $SG4294952331              0041c7ac     * CIL library *:* CIL module *
 0002:000017b0       $SG4294952330              0041c7b0     * CIL library *:* CIL module *
 0002:000017b4       $SG4294952329              0041c7b4     * CIL library *:* CIL module *
 0002:000017c0       $SG4294952328              0041c7c0     * CIL library *:* CIL module *
 0002:000017cc       $SG4294952327              0041c7cc     * CIL library *:* CIL module *
 0002:000017d4       $SG4294952326              0041c7d4     * CIL library *:* CIL module *
 0002:000017dc       $SG4294952325              0041c7dc     * CIL library *:* CIL module *
 0002:000017e4       $SG4294952324              0041c7e4     * CIL library *:* CIL module *
 0002:000017fc       $SG4294952323              0041c7fc     * CIL library *:* CIL module *
 0002:00001808       $SG4294952322              0041c808     * CIL library *:* CIL module *
 0002:00001814       $SG4294952321              0041c814     * CIL library *:* CIL module *
 0002:00001820       $SG4294952320              0041c820     * CIL library *:* CIL module *
 0002:00001828       $SG4294952319              0041c828     * CIL library *:* CIL module *
 0002:0000182c       $SG4294952318              0041c82c     * CIL library *:* CIL module *
 0002:00001838       $SG4294952317              0041c838     * CIL library *:* CIL module *
 0002:00001840       $SG4294952316              0041c840     * CIL library *:* CIL module *
 0002:0000184c       $SG4294952315              0041c84c     * CIL library *:* CIL module *
 0002:00001854       $SG4294928698              0041c854     * CIL library *:* CIL module *
 0002:0000185c       $SG4294928649              0041c85c     * CIL library *:* CIL module *
 0002:00001864       $SG4294928578              0041c864     * CIL library *:* CIL module *
 0002:00001940       ?messageMap@?1??GetThisMessageMap@CSetPSW@@KGPBUAFX_MSGMAP@@XZ@4U3@B 0041c940     * CIL library *:* CIL module *
 0002:00001948       ?_messageEntries@?1??GetThisMessageMap@CSetPSW@@KGPBUAFX_MSGMAP@@XZ@4QBUAFX_MSGMAP_ENTRY@@B 0041c948     * CIL library *:* CIL module *
 0002:00001c28       ?messageMap@?1??GetThisMessageMap@CEDSCapture@@KGPBUAFX_MSGMAP@@XZ@4U3@B 0041cc28     * CIL library *:* CIL module *
 0002:00001c30       ?_messageEntries@?1??GetThisMessageMap@CEDSCapture@@KGPBUAFX_MSGMAP@@XZ@4QBUAFX_MSGMAP_ENTRY@@B 0041cc30     * CIL library *:* CIL module *
 0002:00001f5c       ?messageMap@?1??GetThisMessageMap@CEndoScopeMFCApp@@KGPBUAFX_MSGMAP@@XZ@4U3@B 0041cf5c     * CIL library *:* CIL module *
 0002:00001f64       ?_messageEntries@?1??GetThisMessageMap@CEndoScopeMFCApp@@KGPBUAFX_MSGMAP@@XZ@4QBUAFX_MSGMAP_ENTRY@@B 0041cf64     * CIL library *:* CIL module *
 0002:00002128       ?messageMap@?1??GetThisMessageMap@CEndoScopeMFCDlg@@KGPBUAFX_MSGMAP@@XZ@4U3@B 0041d128     * CIL library *:* CIL module *
 0002:00002130       ?_messageEntries@?1??GetThisMessageMap@CEndoScopeMFCDlg@@KGPBUAFX_MSGMAP@@XZ@4QBUAFX_MSGMAP_ENTRY@@B 0041d130     * CIL library *:* CIL module *
 0002:00002544       ?messageMap@?1??GetThisMessageMap@CAboutDlg@@KGPBUAFX_MSGMAP@@XZ@4U3@B 0041d544     * CIL library *:* CIL module *
 0002:00002550       ?_messageEntries@?1??GetThisMessageMap@CAboutDlg@@KGPBUAFX_MSGMAP@@XZ@4QBUAFX_MSGMAP_ENTRY@@B 0041d550     * CIL library *:* CIL module *
 0002:00002738       ?messageMap@?1??GetThisMessageMap@Login@@KGPBUAFX_MSGMAP@@XZ@4U3@B 0041d738     * CIL library *:* CIL module *
 0002:00002740       ?_messageEntries@?1??GetThisMessageMap@Login@@KGPBUAFX_MSGMAP@@XZ@4QBUAFX_MSGMAP_ENTRY@@B 0041d740     * CIL library *:* CIL module *
 0002:00003928       __sehtable$__onexit        0041e928     msvcrt:atonexit.obj
 0002:00003948       __sehtable$___tmainCRTStartup 0041e948     msvcrt:crtexew.obj
 0002:00003968       __sehtable$??_M@YGXPAXIHP6EX0@Z@Z 0041e968     msvcrt:ehvecdtr.obj
 0002:00003988       __sehtable$?__ArrayUnwind@@YGXPAXIHP6EX0@Z@Z 0041e988     msvcrt:ehvecdtr.obj
 0002:000039a8       __sehtable$__IsNonwritableInCurrentImage 0041e9a8     msvcrt:pesect.obj
 0002:00003a18       __ehfuncinfo$?_Copy@?$basic_string@DU?$char_traits@D@std@@V?$allocator@D@2@@std@@QAEXII@Z 0041ea18     * CIL library *:* CIL module *
 0002:00003a3c       __unwindtable$?_Copy@?$basic_string@DU?$char_traits@D@std@@V?$allocator@D@2@@std@@QAEXII@Z 0041ea3c     * CIL library *:* CIL module *
 0002:00003a5c       __tryblocktable$?_Copy@?$basic_string@DU?$char_traits@D@std@@V?$allocator@D@2@@std@@QAEXII@Z 0041ea5c     * CIL library *:* CIL module *
 0002:00003a84       __catchsym$?_Copy@?$basic_string@DU?$char_traits@D@std@@V?$allocator@D@2@@std@@QAEXII@Z$4 0041ea84     * CIL library *:* CIL module *
 0002:00003a94       __catchsym$?_Copy@?$basic_string@DU?$char_traits@D@std@@V?$allocator@D@2@@std@@QAEXII@Z$5 0041ea94     * CIL library *:* CIL module *
 0002:00003aa4       __ehfuncinfo$??1CGdiObject@@UAE@XZ 0041eaa4     * CIL library *:* CIL module *
 0002:00003ac8       __unwindtable$??1CGdiObject@@UAE@XZ 0041eac8     * CIL library *:* CIL module *
 0002:00003ae8       __tryblocktable$??1CGdiObject@@UAE@XZ 0041eae8     * CIL library *:* CIL module *
 0002:00003afc       __catchsym$??1CGdiObject@@UAE@XZ$4 0041eafc     * CIL library *:* CIL module *
 0002:00003b0c       __ehfuncinfo$??HATL@@YA?AV?$CStringT@DV?$StrTraitMFC_DLL@DV?$ChTraitsCRT@D@ATL@@@@@0@ABV10@0@Z 0041eb0c     * CIL library *:* CIL module *
 0002:00003b0c       __ehfuncinfo$??HATL@@YA?AV?$CStringT@DV?$StrTraitMFC_DLL@DV?$ChTraitsCRT@D@ATL@@@@@0@ABV10@PBD@Z 0041eb0c     * CIL library *:* CIL module *
 0002:00003b30       __unwindtable$??HATL@@YA?AV?$CStringT@DV?$StrTraitMFC_DLL@DV?$ChTraitsCRT@D@ATL@@@@@0@ABV10@PBD@Z 0041eb30     * CIL library *:* CIL module *
 0002:00003b30       __unwindtable$??HATL@@YA?AV?$CStringT@DV?$StrTraitMFC_DLL@DV?$ChTraitsCRT@D@ATL@@@@@0@ABV10@0@Z 0041eb30     * CIL library *:* CIL module *
 0002:00003b38       __ehfuncinfo$?OnBnClickedOk@CSetPSW@@QAEXXZ 0041eb38     * CIL library *:* CIL module *
 0002:00003b5c       __unwindtable$?OnBnClickedOk@CSetPSW@@QAEXXZ 0041eb5c     * CIL library *:* CIL module *
 0002:00003b94       __ehfuncinfo$??1CDialogEx@@UAE@XZ 0041eb94     * CIL library *:* CIL module *
 0002:00003bb8       __unwindtable$??1CDialogEx@@UAE@XZ 0041ebb8     * CIL library *:* CIL module *
 0002:00003bc8       __ehfuncinfo$??$construct@PAEABQAE@?$allocator@U?$_List_node@PAEPAX@std@@@std@@QAEXPAPAEABQAE@Z 0041ebc8     * CIL library *:* CIL module *
 0002:00003bc8       __ehfuncinfo$??$construct@PADAAPAD@?$allocator@D@std@@QAEXPAPADAAPAD@Z 0041ebc8     * CIL library *:* CIL module *
 0002:00003bc8       __ehfuncinfo$??$construct@PAU?$_Tree_node@U?$pair@$$CBIN@std@@PAX@std@@AAPAU12@@?$allocator@U?$_Tree_node@U?$pair@$$CBIN@std@@PAX@std@@@std@@QAEXPAPAU?$_Tree_node@U?$pair@$$CBIN@std@@PAX@1@AAPAU21@@Z 0041ebc8     * CIL library *:* CIL module *
 0002:00003bc8       __ehfuncinfo$?construct@?$allocator@V?$basic_string@DU?$char_traits@D@std@@V?$allocator@D@2@@std@@@std@@QAEXPAV?$basic_string@DU?$char_traits@D@std@@V?$allocator@D@2@@2@ABV32@@Z 0041ebc8     * CIL library *:* CIL module *
 0002:00003bc8       __ehfuncinfo$??$construct@U_Container_proxy@std@@U12@@?$allocator@U_Container_proxy@std@@@std@@QAEXPAU_Container_proxy@1@$$QAU21@@Z 0041ebc8     * CIL library *:* CIL module *
 0002:00003bc8       __ehfuncinfo$??$construct@PAU?$_List_node@PAEPAX@std@@AAPAU12@@?$allocator@U?$_List_node@PAEPAX@std@@@std@@QAEXPAPAU?$_List_node@PAEPAX@1@AAPAU21@@Z 0041ebc8     * CIL library *:* CIL module *
 0002:00003bec       __unwindtable$?construct@?$allocator@V?$basic_string@DU?$char_traits@D@std@@V?$allocator@D@2@@std@@@std@@QAEXPAV?$basic_string@DU?$char_traits@D@std@@V?$allocator@D@2@@2@ABV32@@Z 0041ebec     * CIL library *:* CIL module *
 0002:00003bec       __unwindtable$??$construct@PAEABQAE@?$allocator@U?$_List_node@PAEPAX@std@@@std@@QAEXPAPAEABQAE@Z 0041ebec     * CIL library *:* CIL module *
 0002:00003bec       __unwindtable$??$construct@PADAAPAD@?$allocator@D@std@@QAEXPAPADAAPAD@Z 0041ebec     * CIL library *:* CIL module *
 0002:00003bec       __unwindtable$??$construct@PAU?$_Tree_node@U?$pair@$$CBIN@std@@PAX@std@@AAPAU12@@?$allocator@U?$_Tree_node@U?$pair@$$CBIN@std@@PAX@std@@@std@@QAEXPAPAU?$_Tree_node@U?$pair@$$CBIN@std@@PAX@1@AAPAU21@@Z 0041ebec     * CIL library *:* CIL module *
 0002:00003bec       __unwindtable$??$construct@U_Container_proxy@std@@U12@@?$allocator@U_Container_proxy@std@@@std@@QAEXPAU_Container_proxy@1@$$QAU21@@Z 0041ebec     * CIL library *:* CIL module *
 0002:00003bec       __unwindtable$??$construct@PAU?$_List_node@PAEPAX@std@@AAPAU12@@?$allocator@U?$_List_node@PAEPAX@std@@@std@@QAEXPAPAU?$_List_node@PAEPAX@1@AAPAU21@@Z 0041ebec     * CIL library *:* CIL module *
 0002:00003bf4       __ehfuncinfo$?_Buyheadnode@?$_Tree_alloc@$0A@U?$_Tree_base_types@U?$pair@$$CBIN@std@@V?$allocator@U?$pair@$$CBIN@std@@@2@@std@@@std@@QAEPAU?$_Tree_node@U?$pair@$$CBIN@std@@PAX@2@XZ 0041ebf4     * CIL library *:* CIL module *
 0002:00003c18       __unwindtable$?_Buyheadnode@?$_Tree_alloc@$0A@U?$_Tree_base_types@U?$pair@$$CBIN@std@@V?$allocator@U?$pair@$$CBIN@std@@@2@@std@@@std@@QAEPAU?$_Tree_node@U?$pair@$$CBIN@std@@PAX@2@XZ 0041ec18     * CIL library *:* CIL module *
 0002:00003c28       __tryblocktable$?_Buyheadnode@?$_Tree_alloc@$0A@U?$_Tree_base_types@U?$pair@$$CBIN@std@@V?$allocator@U?$pair@$$CBIN@std@@@2@@std@@@std@@QAEPAU?$_Tree_node@U?$pair@$$CBIN@std@@PAX@2@XZ 0041ec28     * CIL library *:* CIL module *
 0002:00003c3c       __catchsym$?_Buyheadnode@?$_Tree_alloc@$0A@U?$_Tree_base_types@U?$pair@$$CBIN@std@@V?$allocator@U?$pair@$$CBIN@std@@@2@@std@@@std@@QAEPAU?$_Tree_node@U?$pair@$$CBIN@std@@PAX@2@XZ$2 0041ec3c     * CIL library *:* CIL module *
 0002:00003c4c       __ehfuncinfo$??0?$_Deque_alloc@$0A@U?$_Deque_base_types@PAEV?$allocator@PAE@std@@@std@@@std@@QAE@ABV?$allocator@PAE@1@@Z 0041ec4c     * CIL library *:* CIL module *
 0002:00003c4c       __ehfuncinfo$??0?$_Deque_alloc@$0A@U?$_Deque_base_types@V?$basic_string@DU?$char_traits@D@std@@V?$allocator@D@2@@std@@V?$allocator@V?$basic_string@DU?$char_traits@D@std@@V?$allocator@D@2@@std@@@2@@std@@@std@@QAE@ABV?$allocator@V?$basic_string@DU?$char_traits@D@std@@V?$allocator@D@2@@std@@@1@@Z 0041ec4c     * CIL library *:* CIL module *
 0002:00003c70       __unwindtable$??0?$_Deque_alloc@$0A@U?$_Deque_base_types@V?$basic_string@DU?$char_traits@D@std@@V?$allocator@D@2@@std@@V?$allocator@V?$basic_string@DU?$char_traits@D@std@@V?$allocator@D@2@@std@@@2@@std@@@std@@QAE@ABV?$allocator@V?$basic_string@DU?$char_traits@D@std@@V?$allocator@D@2@@std@@@1@@Z 0041ec70     * CIL library *:* CIL module *
 0002:00003c70       __unwindtable$??0?$_Deque_alloc@$0A@U?$_Deque_base_types@PAEV?$allocator@PAE@std@@@std@@@std@@QAE@ABV?$allocator@PAE@1@@Z 0041ec70     * CIL library *:* CIL module *
 0002:00003c78       __ehfuncinfo$?ReturnPath@@YA?AV?$CStringT@DV?$StrTraitMFC_DLL@DV?$ChTraitsCRT@D@ATL@@@@@ATL@@XZ 0041ec78     * CIL library *:* CIL module *
 0002:00003c9c       __unwindtable$?ReturnPath@@YA?AV?$CStringT@DV?$StrTraitMFC_DLL@DV?$ChTraitsCRT@D@ATL@@@@@ATL@@XZ 0041ec9c     * CIL library *:* CIL module *
 0002:00003cac       __ehfuncinfo$?SetConfig@@YAXV?$CStringT@DV?$StrTraitMFC_DLL@DV?$ChTraitsCRT@D@ATL@@@@@ATL@@N@Z 0041ecac     * CIL library *:* CIL module *
 0002:00003cd0       __unwindtable$?SetConfig@@YAXV?$CStringT@DV?$StrTraitMFC_DLL@DV?$ChTraitsCRT@D@ATL@@@@@ATL@@N@Z 0041ecd0     * CIL library *:* CIL module *
 0002:00003d00       __ehfuncinfo$?ReadConfig@@YA_NXZ 0041ed00     * CIL library *:* CIL module *
 0002:00003d24       __unwindtable$?ReadConfig@@YA_NXZ 0041ed24     * CIL library *:* CIL module *
 0002:00003d44       __ehfuncinfo$?FindCaptureDevice@CEDSCapture@@IAEJPAPAUIBaseFilter@@@Z 0041ed44     * CIL library *:* CIL module *
 0002:00003d68       __unwindtable$?FindCaptureDevice@CEDSCapture@@IAEJPAPAUIBaseFilter@@@Z 0041ed68     * CIL library *:* CIL module *
 0002:00003d80       __ehfuncinfo$?Init@CEDSCapture@@QAEJHPAUHWND__@@@Z 0041ed80     * CIL library *:* CIL module *
 0002:00003da4       __unwindtable$?Init@CEDSCapture@@QAEJHPAUHWND__@@@Z 0041eda4     * CIL library *:* CIL module *
 0002:00003dac       __ehfuncinfo$??0CEDSCapture@@QAE@XZ 0041edac     * CIL library *:* CIL module *
 0002:00003dac       __ehfuncinfo$??1CEDSCapture@@UAE@XZ 0041edac     * CIL library *:* CIL module *
 0002:00003dd0       __unwindtable$??1CEDSCapture@@UAE@XZ 0041edd0     * CIL library *:* CIL module *
 0002:00003dd0       __unwindtable$??0CEDSCapture@@QAE@XZ 0041edd0     * CIL library *:* CIL module *
 0002:00003de0       __ehfuncinfo$?InitInstance@CEndoScopeMFCApp@@UAEHXZ 0041ede0     * CIL library *:* CIL module *
 0002:00003e04       __unwindtable$?InitInstance@CEndoScopeMFCApp@@UAEHXZ 0041ee04     * CIL library *:* CIL module *
 0002:00003e14       __ehfuncinfo$?Format@COleDateTime@ATL@@QBE?AV?$CStringT@DV?$StrTraitMFC_DLL@DV?$ChTraitsCRT@D@ATL@@@@@2@PBD@Z 0041ee14     * CIL library *:* CIL module *
 0002:00003e38       __unwindtable$?Format@COleDateTime@ATL@@QBE?AV?$CStringT@DV?$StrTraitMFC_DLL@DV?$ChTraitsCRT@D@ATL@@@@@2@PBD@Z 0041ee38     * CIL library *:* CIL module *
 0002:00003e50       __ehfuncinfo$??0sentry@?$basic_ostream@DU?$char_traits@D@std@@@std@@QAE@AAV12@@Z 0041ee50     * CIL library *:* CIL module *
 0002:00003e50       __ehfuncinfo$??0sentry@?$basic_istream@DU?$char_traits@D@std@@@std@@QAE@AAV12@_N@Z 0041ee50     * CIL library *:* CIL module *
 0002:00003e74       __unwindtable$??0sentry@?$basic_istream@DU?$char_traits@D@std@@@std@@QAE@AAV12@_N@Z 0041ee74     * CIL library *:* CIL module *
 0002:00003e74       __unwindtable$??0sentry@?$basic_ostream@DU?$char_traits@D@std@@@std@@QAE@AAV12@@Z 0041ee74     * CIL library *:* CIL module *
 0002:00003e7c       __ehfuncinfo$??$_Buynode@ABQAE@?$_List_buy@PAEV?$allocator@PAE@std@@@std@@QAEPAU?$_List_node@PAEPAX@1@PAU21@0ABQAE@Z 0041ee7c     * CIL library *:* CIL module *
 0002:00003ea0       __unwindtable$??$_Buynode@ABQAE@?$_List_buy@PAEV?$allocator@PAE@std@@@std@@QAEPAU?$_List_node@PAEPAX@1@PAU21@0ABQAE@Z 0041eea0     * CIL library *:* CIL module *
 0002:00003eb0       __tryblocktable$??$_Buynode@ABQAE@?$_List_buy@PAEV?$allocator@PAE@std@@@std@@QAEPAU?$_List_node@PAEPAX@1@PAU21@0ABQAE@Z 0041eeb0     * CIL library *:* CIL module *
 0002:00003ec4       __catchsym$??$_Buynode@ABQAE@?$_List_buy@PAEV?$allocator@PAE@std@@@std@@QAEPAU?$_List_node@PAEPAX@1@PAU21@0ABQAE@Z$2 0041eec4     * CIL library *:* CIL module *
 0002:00003ed4       __ehfuncinfo$??$getline@DU?$char_traits@D@std@@V?$allocator@D@2@@std@@YAAAV?$basic_istream@DU?$char_traits@D@std@@@0@$$QAV10@AAV?$basic_string@DU?$char_traits@D@std@@V?$allocator@D@2@@0@D@Z 0041eed4     * CIL library *:* CIL module *
 0002:00003ef8       __unwindtable$??$getline@DU?$char_traits@D@std@@V?$allocator@D@2@@std@@YAAAV?$basic_istream@DU?$char_traits@D@std@@@0@$$QAV10@AAV?$basic_string@DU?$char_traits@D@std@@V?$allocator@D@2@@0@D@Z 0041eef8     * CIL library *:* CIL module *
 0002:00003f10       __tryblocktable$??$getline@DU?$char_traits@D@std@@V?$allocator@D@2@@std@@YAAAV?$basic_istream@DU?$char_traits@D@std@@@0@$$QAV10@AAV?$basic_string@DU?$char_traits@D@std@@V?$allocator@D@2@@0@D@Z 0041ef10     * CIL library *:* CIL module *
 0002:00003f24       __catchsym$??$getline@DU?$char_traits@D@std@@V?$allocator@D@2@@std@@YAAAV?$basic_istream@DU?$char_traits@D@std@@@0@$$QAV10@AAV?$basic_string@DU?$char_traits@D@std@@V?$allocator@D@2@@0@D@Z$3 0041ef24     * CIL library *:* CIL module *
 0002:00003f34       __ehfuncinfo$??$use_facet@V?$codecvt@DDH@std@@@std@@YAABV?$codecvt@DDH@0@ABVlocale@0@@Z 0041ef34     * CIL library *:* CIL module *
 0002:00003f58       __unwindtable$??$use_facet@V?$codecvt@DDH@std@@@std@@YAABV?$codecvt@DDH@0@ABVlocale@0@@Z 0041ef58     * CIL library *:* CIL module *
 0002:00003f60       __ehfuncinfo$??$?6U?$char_traits@D@std@@@std@@YAAAV?$basic_ostream@DU?$char_traits@D@std@@@0@AAV10@PBD@Z 0041ef60     * CIL library *:* CIL module *
 0002:00003f84       __unwindtable$??$?6U?$char_traits@D@std@@@std@@YAAAV?$basic_ostream@DU?$char_traits@D@std@@@0@AAV10@PBD@Z 0041ef84     * CIL library *:* CIL module *
 0002:00003f9c       __tryblocktable$??$?6U?$char_traits@D@std@@@std@@YAAAV?$basic_ostream@DU?$char_traits@D@std@@@0@AAV10@PBD@Z 0041ef9c     * CIL library *:* CIL module *
 0002:00003fb0       __catchsym$??$?6U?$char_traits@D@std@@@std@@YAAAV?$basic_ostream@DU?$char_traits@D@std@@@0@AAV10@PBD@Z$3 0041efb0     * CIL library *:* CIL module *
 0002:00003fc0       __ehfuncinfo$?_Buynode0@?$_List_alloc@$0A@U?$_List_base_types@PAEV?$allocator@PAE@std@@@std@@@std@@QAEPAU?$_List_node@PAEPAX@2@PAU32@0@Z 0041efc0     * CIL library *:* CIL module *
 0002:00003fe4       __unwindtable$?_Buynode0@?$_List_alloc@$0A@U?$_List_base_types@PAEV?$allocator@PAE@std@@@std@@@std@@QAEPAU?$_List_node@PAEPAX@2@PAU32@0@Z 0041efe4     * CIL library *:* CIL module *
 0002:00003ff4       __tryblocktable$?_Buynode0@?$_List_alloc@$0A@U?$_List_base_types@PAEV?$allocator@PAE@std@@@std@@@std@@QAEPAU?$_List_node@PAEPAX@2@PAU32@0@Z 0041eff4     * CIL library *:* CIL module *
 0002:00004008       __catchsym$?_Buynode0@?$_List_alloc@$0A@U?$_List_base_types@PAEV?$allocator@PAE@std@@@std@@@std@@QAEPAU?$_List_node@PAEPAX@2@PAU32@0@Z$2 0041f008     * CIL library *:* CIL module *
 0002:00004018       __ehfuncinfo$?_Endwrite@?$basic_filebuf@DU?$char_traits@D@std@@@std@@IAE_NXZ 0041f018     * CIL library *:* CIL module *
 0002:0000403c       __unwindtable$?_Endwrite@?$basic_filebuf@DU?$char_traits@D@std@@@std@@IAE_NXZ 0041f03c     * CIL library *:* CIL module *
 0002:00004044       __ehfuncinfo$?open@?$basic_filebuf@DU?$char_traits@D@std@@@std@@QAEPAV12@PBDHH@Z 0041f044     * CIL library *:* CIL module *
 0002:00004068       __unwindtable$?open@?$basic_filebuf@DU?$char_traits@D@std@@@std@@QAEPAV12@PBDHH@Z 0041f068     * CIL library *:* CIL module *
 0002:00004070       __ehfuncinfo$??0?$basic_filebuf@DU?$char_traits@D@std@@@std@@QAE@PAU_iobuf@@@Z 0041f070     * CIL library *:* CIL module *
 0002:00004094       __unwindtable$??0?$basic_filebuf@DU?$char_traits@D@std@@@std@@QAE@PAU_iobuf@@@Z 0041f094     * CIL library *:* CIL module *
 0002:0000409c       __ehfuncinfo$??0?$basic_ifstream@DU?$char_traits@D@std@@@std@@QAE@PBDHH@Z 0041f09c     * CIL library *:* CIL module *
 0002:000040c0       __unwindtable$??0?$basic_ifstream@DU?$char_traits@D@std@@@std@@QAE@PBDHH@Z 0041f0c0     * CIL library *:* CIL module *
 0002:000040d8       __ehfuncinfo$?uflow@?$basic_filebuf@DU?$char_traits@D@std@@@std@@MAEHXZ 0041f0d8     * CIL library *:* CIL module *
 0002:000040fc       __unwindtable$?uflow@?$basic_filebuf@DU?$char_traits@D@std@@@std@@MAEHXZ 0041f0fc     * CIL library *:* CIL module *
 0002:00004104       __ehfuncinfo$?overflow@?$basic_filebuf@DU?$char_traits@D@std@@@std@@MAEHH@Z 0041f104     * CIL library *:* CIL module *
 0002:00004128       __unwindtable$?overflow@?$basic_filebuf@DU?$char_traits@D@std@@@std@@MAEHH@Z 0041f128     * CIL library *:* CIL module *
 0002:00004130       __ehfuncinfo$??0?$basic_ofstream@DU?$char_traits@D@std@@@std@@QAE@PBDHH@Z 0041f130     * CIL library *:* CIL module *
 0002:00004154       __unwindtable$??0?$basic_ofstream@DU?$char_traits@D@std@@@std@@QAE@PBDHH@Z 0041f154     * CIL library *:* CIL module *
 0002:0000416c       __ehfuncinfo$?GetPicture@CEndoScopeMFCDlg@@QAEPAEXZ 0041f16c     * CIL library *:* CIL module *
 0002:00004190       __unwindtable$?GetPicture@CEndoScopeMFCDlg@@QAEPAEXZ 0041f190     * CIL library *:* CIL module *
 0002:000041a0       __tryblocktable$?GetPicture@CEndoScopeMFCDlg@@QAEPAEXZ 0041f1a0     * CIL library *:* CIL module *
 0002:000041b4       __catchsym$?GetPicture@CEndoScopeMFCDlg@@QAEPAEXZ$2 0041f1b4     * CIL library *:* CIL module *
 0002:000041c4       __ehfuncinfo$?IniWhilteLamda@CEndoScopeMFCDlg@@QAEXXZ 0041f1c4     * CIL library *:* CIL module *
 0002:000041e8       __unwindtable$?IniWhilteLamda@CEndoScopeMFCDlg@@QAEXXZ 0041f1e8     * CIL library *:* CIL module *
 0002:000041f8       __ehfuncinfo$?CalWhilteLamda@CEndoScopeMFCDlg@@QAEXPAE@Z 0041f1f8     * CIL library *:* CIL module *
 0002:0000421c       __unwindtable$?CalWhilteLamda@CEndoScopeMFCDlg@@QAEXPAE@Z 0041f21c     * CIL library *:* CIL module *
 0002:0000424c       __ehfuncinfo$?SaveToPeripherals@CEndoScopeMFCDlg@@AAEXXZ 0041f24c     * CIL library *:* CIL module *
 0002:00004270       __unwindtable$?SaveToPeripherals@CEndoScopeMFCDlg@@AAEXXZ 0041f270     * CIL library *:* CIL module *
 0002:000042a8       __ehfuncinfo$?CutDirFileAPI@@YAHV?$CStringT@DV?$StrTraitMFC_DLL@DV?$ChTraitsCRT@D@ATL@@@@@ATL@@0@Z 0041f2a8     * CIL library *:* CIL module *
 0002:000042cc       __unwindtable$?CutDirFileAPI@@YAHV?$CStringT@DV?$StrTraitMFC_DLL@DV?$ChTraitsCRT@D@ATL@@@@@ATL@@0@Z 0041f2cc     * CIL library *:* CIL module *
 0002:000042f4       __ehfuncinfo$?SaveVideo@CEndoScopeMFCDlg@@QAEXXZ 0041f2f4     * CIL library *:* CIL module *
 0002:00004318       __unwindtable$?SaveVideo@CEndoScopeMFCDlg@@QAEXXZ 0041f318     * CIL library *:* CIL module *
 0002:00004328       __ehfuncinfo$?OnCtlData@CEndoScopeMFCDlg@@QAEJIJ@Z 0041f328     * CIL library *:* CIL module *
 0002:0000434c       __unwindtable$?OnCtlData@CEndoScopeMFCDlg@@QAEJIJ@Z 0041f34c     * CIL library *:* CIL module *
 0002:00004354       __ehfuncinfo$?ShowEndoscopeInfo@CEndoScopeMFCDlg@@QAEXPAEH@Z 0041f354     * CIL library *:* CIL module *
 0002:00004378       __unwindtable$?ShowEndoscopeInfo@CEndoScopeMFCDlg@@QAEXPAEH@Z 0041f378     * CIL library *:* CIL module *
 0002:00004398       __ehfuncinfo$?ScreenCAPThreadProc@CEndoScopeMFCDlg@@CAIPAX@Z 0041f398     * CIL library *:* CIL module *
 0002:000043bc       __unwindtable$?ScreenCAPThreadProc@CEndoScopeMFCDlg@@CAIPAX@Z 0041f3bc     * CIL library *:* CIL module *
 0002:000043c8       __ehfuncinfo$?ShowVideoThreadFunc@CEndoScopeMFCDlg@@CAIPAX@Z 0041f3c8     * CIL library *:* CIL module *
 0002:000043f0       __unwindtable$?ShowVideoThreadFunc@CEndoScopeMFCDlg@@CAIPAX@Z 0041f3f0     * CIL library *:* CIL module *
 0002:00004450       __ehfuncinfo$?ShowCurrentDateTime@CEndoScopeMFCDlg@@AAEXXZ 0041f450     * CIL library *:* CIL module *
 0002:00004474       __unwindtable$?ShowCurrentDateTime@CEndoScopeMFCDlg@@AAEXXZ 0041f474     * CIL library *:* CIL module *
 0002:0000447c       __ehfuncinfo$?SetPicWidowShape@CEndoScopeMFCDlg@@QAEXXZ 0041f47c     * CIL library *:* CIL module *
 0002:000044a0       __unwindtable$?SetPicWidowShape@CEndoScopeMFCDlg@@QAEXXZ 0041f4a0     * CIL library *:* CIL module *
 0002:000044b0       __ehfuncinfo$?InitializeFormBoxLayout@CEndoScopeMFCDlg@@QAEXXZ 0041f4b0     * CIL library *:* CIL module *
 0002:000044d4       __unwindtable$?InitializeFormBoxLayout@CEndoScopeMFCDlg@@QAEXXZ 0041f4d4     * CIL library *:* CIL module *
 0002:000044dc       __ehfuncinfo$?GetSaveImgPath@CEndoScopeMFCDlg@@QAE?AV?$basic_string@DU?$char_traits@D@std@@V?$allocator@D@2@@std@@H@Z 0041f4dc     * CIL library *:* CIL module *
 0002:00004500       __unwindtable$?GetSaveImgPath@CEndoScopeMFCDlg@@QAE?AV?$basic_string@DU?$char_traits@D@std@@V?$allocator@D@2@@std@@H@Z 0041f500     * CIL library *:* CIL module *
 0002:00004530       __ehfuncinfo$?SavePicThreadProc@CEndoScopeMFCDlg@@CAIPAX@Z 0041f530     * CIL library *:* CIL module *
 0002:00004554       __unwindtable$?SavePicThreadProc@CEndoScopeMFCDlg@@CAIPAX@Z 0041f554     * CIL library *:* CIL module *
 0002:0000457c       __ehfuncinfo$?InitParameter@CEndoScopeMFCDlg@@AAEXXZ 0041f57c     * CIL library *:* CIL module *
 0002:000045a0       __unwindtable$?InitParameter@CEndoScopeMFCDlg@@AAEXXZ 0041f5a0     * CIL library *:* CIL module *
 0002:000045b0       __ehfuncinfo$?InitializePLC@CEndoScopeMFCDlg@@AAEXXZ 0041f5b0     * CIL library *:* CIL module *
 0002:000045d4       __unwindtable$?InitializePLC@CEndoScopeMFCDlg@@AAEXXZ 0041f5d4     * CIL library *:* CIL module *
 0002:000045e4       __ehfuncinfo$?WindowProc@CEndoScopeMFCDlg@@MAEJIIJ@Z 0041f5e4     * CIL library *:* CIL module *
 0002:00004608       __unwindtable$?WindowProc@CEndoScopeMFCDlg@@MAEJIIJ@Z 0041f608     * CIL library *:* CIL module *
 0002:00004618       __ehfuncinfo$?InitializecvWindow@CEndoScopeMFCDlg@@AAEXXZ 0041f618     * CIL library *:* CIL module *
 0002:0000463c       __unwindtable$?InitializecvWindow@CEndoScopeMFCDlg@@AAEXXZ 0041f63c     * CIL library *:* CIL module *
 0002:0000464c       __ehfuncinfo$?OnPaint@CEndoScopeMFCDlg@@IAEXXZ 0041f64c     * CIL library *:* CIL module *
 0002:00004670       __unwindtable$?OnPaint@CEndoScopeMFCDlg@@IAEXXZ 0041f670     * CIL library *:* CIL module *
 0002:00004678       __ehfuncinfo$?OnSysCommand@CEndoScopeMFCDlg@@IAEXIJ@Z 0041f678     * CIL library *:* CIL module *
 0002:0000469c       __unwindtable$?OnSysCommand@CEndoScopeMFCDlg@@IAEXIJ@Z 0041f69c     * CIL library *:* CIL module *
 0002:000046a4       __ehfuncinfo$?OnInitDialog@CEndoScopeMFCDlg@@MAEHXZ 0041f6a4     * CIL library *:* CIL module *
 0002:000046c8       __unwindtable$?OnInitDialog@CEndoScopeMFCDlg@@MAEHXZ 0041f6c8     * CIL library *:* CIL module *
 0002:000046d0       __ehfuncinfo$??0CAboutDlg@@QAE@XZ 0041f6d0     * CIL library *:* CIL module *
 0002:000046f4       __unwindtable$??0CAboutDlg@@QAE@XZ 0041f6f4     * CIL library *:* CIL module *
 0002:0000470c       __ehfuncinfo$??0Mat@cv@@QAE@HHHPAXI@Z 0041f70c     * CIL library *:* CIL module *
 0002:00004730       __unwindtable$??0Mat@cv@@QAE@HHHPAXI@Z 0041f730     * CIL library *:* CIL module *
 0002:00004740       __ehfuncinfo$??0_OutputArray@cv@@QAE@AAVMat@1@@Z 0041f740     * CIL library *:* CIL module *
 0002:00004764       __unwindtable$??0_OutputArray@cv@@QAE@AAVMat@1@@Z 0041f764     * CIL library *:* CIL module *
 0002:00004770       __ehfuncinfo$??0CEndoScopeMFCDlg@@QAE@PAVCWnd@@@Z 0041f770     * CIL library *:* CIL module *
 0002:00004798       __unwindtable$??0CEndoScopeMFCDlg@@QAE@PAVCWnd@@@Z 0041f798     * CIL library *:* CIL module *
 0002:00004800       __ehfuncinfo$??1CEndoScopeMFCDlg@@UAE@XZ 0041f800     * CIL library *:* CIL module *
 0002:00004828       __unwindtable$??1CEndoScopeMFCDlg@@UAE@XZ 0041f828     * CIL library *:* CIL module *
 0002:00004890       __ehfuncinfo$?ShotPicWindow@CEndoScopeMFCDlg@@QAEXXZ 0041f890     * CIL library *:* CIL module *
 0002:00004890       __ehfuncinfo$?OnInitDialog@Login@@UAEHXZ 0041f890     * CIL library *:* CIL module *
 0002:000048b4       __unwindtable$?OnInitDialog@Login@@UAEHXZ 0041f8b4     * CIL library *:* CIL module *
 0002:000048b4       __unwindtable$?ShotPicWindow@CEndoScopeMFCDlg@@QAEXXZ 0041f8b4     * CIL library *:* CIL module *
 0002:000048bc       __ehfuncinfo$?OnBnClickedOk@Login@@QAEXXZ 0041f8bc     * CIL library *:* CIL module *
 0002:000048e0       __unwindtable$?OnBnClickedOk@Login@@QAEXXZ 0041f8e0     * CIL library *:* CIL module *
 0002:00004908       __ehfuncinfo$?OnBnClickedBtnSetpsw@Login@@QAEXXZ 0041f908     * CIL library *:* CIL module *
 0002:0000492c       __unwindtable$?OnBnClickedBtnSetpsw@Login@@QAEXXZ 0041f92c     * CIL library *:* CIL module *
 0002:00004938       __ehfuncinfo$??0Login@@QAE@PAVCWnd@@@Z 0041f938     * CIL library *:* CIL module *
 0002:00004960       __unwindtable$??0Login@@QAE@PAVCWnd@@@Z 0041f960     * CIL library *:* CIL module *
 0002:000049a0       __ehfuncinfo$??1Login@@UAE@XZ 0041f9a0     * CIL library *:* CIL module *
 0002:000049c4       __unwindtable$??1Login@@UAE@XZ 0041f9c4     * CIL library *:* CIL module *
 0002:000049dc       __ehfuncinfo$??1CPLC@@UAE@XZ 0041f9dc     * CIL library *:* CIL module *
 0002:00004a00       __unwindtable$??1CPLC@@UAE@XZ 0041fa00     * CIL library *:* CIL module *
 0002:00004a18       __ehfuncinfo$??0CPLC@@QAE@XZ 0041fa18     * CIL library *:* CIL module *
 0002:00004a3c       __unwindtable$??0CPLC@@QAE@XZ 0041fa3c     * CIL library *:* CIL module *
 0002:00004a5c       __ehfuncinfo$?ProcessCardInitialize@CPLC@@QAE_NV?$CStringT@DV?$StrTraitMFC_DLL@DV?$ChTraitsCRT@D@ATL@@@@@ATL@@H@Z 0041fa5c     * CIL library *:* CIL module *
 0002:00004a5c       __ehfuncinfo$?VideoInitialize@CPLC@@QAE_NV?$CStringT@DV?$StrTraitMFC_DLL@DV?$ChTraitsCRT@D@ATL@@@@@ATL@@H@Z 0041fa5c     * CIL library *:* CIL module *
 0002:00004a80       __unwindtable$?ProcessCardInitialize@CPLC@@QAE_NV?$CStringT@DV?$StrTraitMFC_DLL@DV?$ChTraitsCRT@D@ATL@@@@@ATL@@H@Z 0041fa80     * CIL library *:* CIL module *
 0002:00004a80       __unwindtable$?VideoInitialize@CPLC@@QAE_NV?$CStringT@DV?$StrTraitMFC_DLL@DV?$ChTraitsCRT@D@ATL@@@@@ATL@@H@Z 0041fa80     * CIL library *:* CIL module *
 0002:00004a88       __ehfuncinfo$?Initialize@CVideoComIO@@QAE_NV?$CStringT@DV?$StrTraitMFC_DLL@DV?$ChTraitsCRT@D@ATL@@@@@ATL@@H@Z 0041fa88     * CIL library *:* CIL module *
 0002:00004a88       __ehfuncinfo$?Initialize@CProcessCard@@QAE_NV?$CStringT@DV?$StrTraitMFC_DLL@DV?$ChTraitsCRT@D@ATL@@@@@ATL@@H@Z 0041fa88     * CIL library *:* CIL module *
 0002:00004aac       __unwindtable$?Initialize@CProcessCard@@QAE_NV?$CStringT@DV?$StrTraitMFC_DLL@DV?$ChTraitsCRT@D@ATL@@@@@ATL@@H@Z 0041faac     * CIL library *:* CIL module *
 0002:00004aac       __unwindtable$?Initialize@CVideoComIO@@QAE_NV?$CStringT@DV?$StrTraitMFC_DLL@DV?$ChTraitsCRT@D@ATL@@@@@ATL@@H@Z 0041faac     * CIL library *:* CIL module *
 0002:00004ab4       __ehfuncinfo$?SendData@CProcessCard@@QAEHPAEH@Z 0041fab4     * CIL library *:* CIL module *
 0002:00004ad8       __unwindtable$?SendData@CProcessCard@@QAEHPAEH@Z 0041fad8     * CIL library *:* CIL module *
 0002:00004ae8       __tryblocktable$?SendData@CProcessCard@@QAEHPAEH@Z 0041fae8     * CIL library *:* CIL module *
 0002:00004afc       __catchsym$?SendData@CProcessCard@@QAEHPAEH@Z$4 0041fafc     * CIL library *:* CIL module *
 0002:00004b2c       __ehfuncinfo$?OnRecv@CVideoComIO@@QAEIPAX@Z 0041fb2c     * CIL library *:* CIL module *
 0002:00004b50       __unwindtable$?OnRecv@CVideoComIO@@QAEIPAX@Z 0041fb50     * CIL library *:* CIL module *
 0002:00004b60       __ehfuncinfo$?SendData@CVideoComIO@@QAEHPAEH@Z 0041fb60     * CIL library *:* CIL module *
 0002:00004b84       __unwindtable$?SendData@CVideoComIO@@QAEHPAEH@Z 0041fb84     * CIL library *:* CIL module *
 0002:00004b94       __tryblocktable$?SendData@CVideoComIO@@QAEHPAEH@Z 0041fb94     * CIL library *:* CIL module *
 0002:00004ba8       __catchsym$?SendData@CVideoComIO@@QAEHPAEH@Z$4 0041fba8     * CIL library *:* CIL module *
 0002:000054e4       .idata$6                   004204e4     mfc110:mfc110.dll
 0002:00005694       .idata$6                   00420694     msvcrt:MSVCR110.dll
 0002:00005af8       .idata$6                   00420af8     kernel32:KERNEL32.dll
 0002:00005c30       .idata$6                   00420c30     user32:USER32.dll
 0002:00005cc8       .idata$6                   00420cc8     gdi32:GDI32.dll
 0002:00005ce6       .idata$6                   00420ce6     shell32:SHELL32.dll
 0002:00005d0a       .idata$6                   00420d0a     comctl32:COMCTL32.dll
 0002:00005d2c       .idata$6                   00420d2c     shlwapi:SHLWAPI.dll
 0002:00005d7e       .idata$6                   00420d7e     ole32:ole32.dll
 0002:00005d88       .idata$6                   00420d88     oleaut32:OLEAUT32.dll
 0002:00006d80       .idata$6                   00421d80     msvcprt:MSVCP110.dll
 0002:00006f02       .idata$6                   00421f02     opencv_core320:opencv_core320.dll
 0002:00006fc0       .idata$6                   00421fc0     opencv_highgui320:opencv_highgui320.dll
 0002:00007030       .idata$6                   00422030     opencv_imgcodecs320:opencv_imgcodecs320.dll
 0002:000070e2       .idata$6                   004220e2     opencv_imgproc320:opencv_imgproc320.dll
 0002:00007154       .idata$6                   00422154     opencv_videoio320:opencv_videoio320.dll
 0002:0000717e       .idata$6                   0042217e     Dbghelp:dbghelp.dll
 0003:00000218       _current_pack_lock         00423218     * CIL library *:* CIL module *
 0003:00000628       _GS_ExceptionRecord        00423628     msvcrt:gs_report.obj
 0003:00000678       _GS_ContextRecord          00423678     msvcrt:gs_report.obj
 0003:00000944       _DebuggerWasPresent        00423944     msvcrt:gs_report.obj
 0003:00000948       _mainret                   00423948     msvcrt:crtexew.obj
 0003:0000094c       _has_cctor                 0042394c     msvcrt:crtexew.obj
 0003:00000950       _argc                      00423950     msvcrt:crtexew.obj
 0003:00000954       _argv                      00423954     msvcrt:crtexew.obj
 0003:00000958       _envp                      00423958     msvcrt:crtexew.obj
 0003:0000095c       _argret                    0042395c     msvcrt:crtexew.obj
 0003:00000960       _managedapp                00423960     msvcrt:crtexew.obj
 0003:00000964       _startinfo                 00423964     msvcrt:crtexew.obj
 0003:00000978       __Fac_head                 00423978     msvcprt:locale0_implib.obj
 0003:0000097c       __Fac_tidy_reg             0042397c     msvcprt:locale0_implib.obj
 0003:000009fc       _bSaveVideoStart           004239fc     * CIL library *:* CIL module *
 0003:00000a04       __have_init_fifo           00423a04     * CIL library *:* CIL module *
 0003:00000a08       _queueLock                 00423a08     * CIL library *:* CIL module *
 0003:00000a14       __have_init_pack           00423a14     * CIL library *:* CIL module *
 0003:00000a18       _GenericSansSerifFontFamilyBuffer 00423a18     * CIL library *:* CIL module *
 0003:00000a20       _GenericTypographicStringFormatBuffer 00423a20     * CIL library *:* CIL module *
 0003:00000a28       _GenericMonospaceFontFamilyBuffer 00423a28     * CIL library *:* CIL module *
 0003:00000a30       _GenericDefaultStringFormatBuffer 00423a30     * CIL library *:* CIL module *
 0003:00000a38       _GenericSerifFontFamilyBuffer 00423a38     * CIL library *:* CIL module *
 0003:00000a44       __have_init_yuv_queue      00423a44     * CIL library *:* CIL module *
 0003:00000a48       _yuvQueueLock              00423a48     * CIL library *:* CIL module *
 0003:00000ba4       _allocator_arg             00423ba4     * CIL library *:* CIL module *
 0003:00000ba5       _piecewise_construct       00423ba5     * CIL library *:* CIL module *
 0003:00000ba8       _dataQueue                 00423ba8     * CIL library *:* CIL module *
 0003:00fd2bf8       _packQueue                 013f5bf8     * CIL library *:* CIL module *
 0003:01518c10       _yuvQueue                  0193bc10     * CIL library *:* CIL module *
 0003:024eac60       ?bshot@?1??ShotPicWindow@CEndoScopeMFCDlg@@QAEXXZ@4_NA 0290dc60     * CIL library *:* CIL module *
 0004:00000500       $R000000                   0290e500     EndoScopeMFC.res
 0004:00000b68       $R000668                   0290eb68     EndoScopeMFC.res
 0004:00000e50       $R000950                   0290ee50     EndoScopeMFC.res
 0004:00001038       $R000B38                   0290f038     EndoScopeMFC.res
 0004:00001160       $R000C60                   0290f160     EndoScopeMFC.res
 0004:00002008       $R001B08                   02910008     EndoScopeMFC.res
 0004:000028b0       $R0023B0                   029108b0     EndoScopeMFC.res
 0004:00002f78       $R002A78                   02910f78     EndoScopeMFC.res
 0004:000034e0       $R002FE0                   029114e0     EndoScopeMFC.res
 0004:0000c8b0       $R00C3B0                   0291a8b0     EndoScopeMFC.res
 0004:0000ee58       $R00E958                   0291ce58     EndoScopeMFC.res
 0004:0000ff00       $R00FA00                   0291df00     EndoScopeMFC.res
 0004:00010888       $R010388                   0291e888     EndoScopeMFC.res
 0004:00010cf0       $R0107F0                   0291ecf0     EndoScopeMFC.res
 0004:00010db0       $R0108B0                   0291edb0     EndoScopeMFC.res
 0004:00010e60       $R010960                   0291ee60     EndoScopeMFC.res
 0004:000114d0       $R010FD0                   0291f4d0     EndoScopeMFC.res
 0004:00011670       $R011170                   0291f670     EndoScopeMFC.res
 0004:000117e8       $R0112E8                   0291f7e8     EndoScopeMFC.res
 0004:00011ae8       $R0115E8                   0291fae8     EndoScopeMFC.res
 0004:00011af0       $R0115F0                   0291faf0     EndoScopeMFC.res
 0004:00011b40       $R011640                   0291fb40     EndoScopeMFC.res
